

HI-TECH Software PIC LITE Macro Assembler V1.00 build 12136 
                                                                                               Fri Aug 10 16:05:10 2012

HI-TECH Software Omniscient Code Generator (Lite mode) build 12136
     1  0000                     opt subtitle "HI-TECH Software Omniscient Code Generator (Lite mode) build 12136"
     2                           
     3                           opt pagewidth 120
     4                           
     5                           	opt lm
     6                           
     7                           	processor	16F876A
     8                           clrc	macro
     9                           	bcf	3,0
    10  0000                     	endm
    11                           clrz	macro
    12                           	bcf	3,2
    13  0000                     	endm
    14                           setc	macro
    15                           	bsf	3,0
    16  0000                     	endm
    17                           setz	macro
    18                           	bsf	3,2
    19  0000                     	endm
    20                           skipc	macro
    21                           	btfss	3,0
    22  0000                     	endm
    23                           skipz	macro
    24                           	btfss	3,2
    25  0000                     	endm
    26                           skipnc	macro
    27                           	btfsc	3,0
    28  0000                     	endm
    29                           skipnz	macro
    30                           	btfsc	3,2
    31  0000                     	endm
    32  0000                     indf	equ	0
    33  0000                     indf0	equ	0
    34  0002                     pc	equ	2
    35  0002                     pcl	equ	2
    36  0003                     status	equ	3
    37  0004                     fsr	equ	4
    38  0004                     fsr0	equ	4
    39  0001                     c	equ	1
    40  0000                     z	equ	0
    41  000A                     pclath	equ	10
    42                           # 17 "Main.c"
    43                           psect config,class=CONFIG,delta=2 ;# 
    44                           # 17 "Main.c"
    45  2007  3F32               dw 0x3F32 ;# 
    46                           	FNCALL	_main,_initialize
    47                           	FNCALL	_main,_LCD_putstr
    48                           	FNCALL	_main,_adc_on
    49                           	FNCALL	_main,_ui_adc_read
    50                           	FNCALL	_main,___lwdiv
    51                           	FNCALL	_main,___lwtoft
    52                           	FNCALL	_main,___ftmul
    53                           	FNCALL	_main,___fttol
    54                           	FNCALL	_main,_LED_Blinking
    55                           	FNCALL	_main,___lwmod
    56                           	FNCALL	_main,_LCD_goto
    57                           	FNCALL	_main,_LCD_putchar
    58                           	FNCALL	_main,_adc_off
    59                           	FNCALL	_LCD_putstr,_LCD_senddata
    60                           	FNCALL	_LCD_putchar,_LCD_senddata
    61                           	FNCALL	_LCD_senddata,_LCD_4bitsend
    62                           	FNCALL	_LCD_goto,_LCD_command
    63                           	FNCALL	_initialize,_adc_initialize
    64                           	FNCALL	_initialize,_LCD_initialize
    65                           	FNCALL	_initialize,_LCD_clear
    66                           	FNCALL	_LCD_initialize,_LCD_command
    67                           	FNCALL	_LCD_clear,_LCD_command
    68                           	FNCALL	_LCD_command,_LCD_4bitsend
    69                           	FNCALL	___ftmul,___ftpack
    70                           	FNCALL	___lwtoft,___ftpack
    71                           	FNROOT	_main
    72                           	global	main@F1161
    73                           	global	_ADRESH
    74  001E                     _ADRESH	set	0x1E
    75                           	global	_ADCS0
    76  00FE                     _ADCS0	set	0xFE
    77                           	global	_ADCS1
    78  00FF                     _ADCS1	set	0xFF
    79                           	global	_ADON
    80  00F8                     _ADON	set	0xF8
    81                           	global	_CHS0
    82  00FB                     _CHS0	set	0xFB
    83                           	global	_CHS1
    84  00FC                     _CHS1	set	0xFC
    85                           	global	_CHS2
    86  00FD                     _CHS2	set	0xFD
    87                           	global	_GO
    88  00FA                     _GO	set	0xFA
    89                           	global	_RB2
    90  0032                     _RB2	set	0x32
    91                           	global	_RB3
    92  0033                     _RB3	set	0x33
    93                           	global	_RB4
    94  0034                     _RB4	set	0x34
    95                           	global	_RB5
    96  0035                     _RB5	set	0x35
    97                           	global	_RB6
    98  0036                     _RB6	set	0x36
    99                           	global	_RB7
   100  0037                     _RB7	set	0x37
   101                           	global	_RC0
   102  0038                     _RC0	set	0x38
   103                           	global	_RC1
   104  0039                     _RC1	set	0x39
   105                           	global	_RC2
   106  003A                     _RC2	set	0x3A
   107                           	global	_RC3
   108  003B                     _RC3	set	0x3B
   109                           	global	_ADRESL
   110  009E                     _ADRESL	set	0x9E
   111                           	global	_TRISB
   112  0086                     _TRISB	set	0x86
   113                           	global	_TRISC
   114  0087                     _TRISC	set	0x87
   115                           	global	_ADCS2
   116  04FE                     _ADCS2	set	0x4FE
   117                           	global	_ADFM
   118  04FF                     _ADFM	set	0x4FF
   119                           	global	_PCFG0
   120  04F8                     _PCFG0	set	0x4F8
   121                           	global	_PCFG1
   122  04F9                     _PCFG1	set	0x4F9
   123                           	global	_PCFG2
   124  04FA                     _PCFG2	set	0x4FA
   125                           	global	_PCFG3
   126  04FB                     _PCFG3	set	0x4FB
   127                           	global	_TRISA0
   128  0428                     _TRISA0	set	0x428
   129                           psect	strings,class=STRING,delta=2
   130                           global __pstrings
   131  0003                     __pstrings:
   132                           ;	global	stringdir,stringtab,__stringbase
   133  0003                     stringtab:
   134                           ;	String table - string pointers are 1 byte each
   135  0003                     stringcode:stringdir:
      + 0003                     stringdir:	
   136  0003  3000               movlw high(stringdir)
   137  0004  008A               movwf pclath
   138  0005  0804               movf fsr,w
   139  0006  0A84               incf fsr
   140  0007  0782               	addwf pc
   141  0008                     __stringbase:
   142  0008  3400               	retlw	0
   143                           psect	strings
   144                           	
   145  0009                     STR_1:	
   146  0009  3420               	retlw	32	;' '
   147  000A  3456               	retlw	86	;'V'
   148  000B  346F               	retlw	111	;'o'
   149  000C  346C               	retlw	108	;'l'
   150  000D  3474               	retlw	116	;'t'
   151  000E  3461               	retlw	97	;'a'
   152  000F  3467               	retlw	103	;'g'
   153  0010  3465               	retlw	101	;'e'
   154  0011  343A               	retlw	58	;':'
   155  0012  3400               	retlw	0
   156                           psect	strings
   157                           	file	"C:\Users\HATAKE~1\AppData\Local\Temp\s39g."
   158                           	line	#
   159                           psect cinit,class=CODE,delta=2
   160                           global start_initialization
   161  0199                     start_initialization:
   162                           
   163                           psect	bssBANK0,class=BANK0,space=1
   164                           global __pbssBANK0
   165  004A                     __pbssBANK0:
   166  004A                     main@F1161:
   167  004A                            ds      4
   168                           
   169                           ; Clear objects allocated to BANK0
   170                           psect cinit,class=CODE,delta=2,merge=1
   171  0199  01CA               	clrf	((__pbssBANK0)+0)&07Fh
   172  019A  01CB               	clrf	((__pbssBANK0)+1)&07Fh
   173  019B  01CC               	clrf	((__pbssBANK0)+2)&07Fh
   174  019C  01CD               	clrf	((__pbssBANK0)+3)&07Fh
   175                           psect cinit,class=CODE,delta=2,merge=1
   176                           global end_of_initialization
   177                           
   178                           ;End of C runtime variable initialization code
   179                           
   180  019D                     end_of_initialization:
   181  019D  0183               clrf status
   182  019E  120A  118A  2ED0   ljmp _main	;jump to C main() function
   183                           psect	cstackCOMMON,class=COMMON,space=1
   184                           global __pcstackCOMMON
   185  0070                     __pcstackCOMMON:
   186                           	global	?_LCD_4bitsend
   187  0070                     ?_LCD_4bitsend:	; 0 bytes @ 0x0
   188                           	global	??_LCD_4bitsend
   189  0070                     ??_LCD_4bitsend:	; 0 bytes @ 0x0
   190                           	global	?_initialize
   191  0070                     ?_initialize:	; 0 bytes @ 0x0
   192                           	global	?_LED_Blinking
   193  0070                     ?_LED_Blinking:	; 0 bytes @ 0x0
   194                           	global	?_adc_initialize
   195  0070                     ?_adc_initialize:	; 0 bytes @ 0x0
   196                           	global	??_adc_initialize
   197  0070                     ??_adc_initialize:	; 0 bytes @ 0x0
   198                           	global	?_adc_on
   199  0070                     ?_adc_on:	; 0 bytes @ 0x0
   200                           	global	??_adc_on
   201  0070                     ??_adc_on:	; 0 bytes @ 0x0
   202                           	global	?_adc_off
   203  0070                     ?_adc_off:	; 0 bytes @ 0x0
   204                           	global	??_adc_off
   205  0070                     ??_adc_off:	; 0 bytes @ 0x0
   206                           	global	?_LCD_command
   207  0070                     ?_LCD_command:	; 0 bytes @ 0x0
   208                           	global	?_LCD_initialize
   209  0070                     ?_LCD_initialize:	; 0 bytes @ 0x0
   210                           	global	?_LCD_senddata
   211  0070                     ?_LCD_senddata:	; 0 bytes @ 0x0
   212                           	global	?_LCD_putstr
   213  0070                     ?_LCD_putstr:	; 0 bytes @ 0x0
   214                           	global	?_LCD_putchar
   215  0070                     ?_LCD_putchar:	; 0 bytes @ 0x0
   216                           	global	?_LCD_clear
   217  0070                     ?_LCD_clear:	; 0 bytes @ 0x0
   218                           	global	?_main
   219  0070                     ?_main:	; 0 bytes @ 0x0
   220                           	global	?_ui_adc_read
   221  0070                     ?_ui_adc_read:	; 2 bytes @ 0x0
   222                           	global	?___lwdiv
   223  0070                     ?___lwdiv:	; 2 bytes @ 0x0
   224                           	global	?___lwmod
   225  0070                     ?___lwmod:	; 2 bytes @ 0x0
   226                           	global	?___ftpack
   227  0070                     ?___ftpack:	; 3 bytes @ 0x0
   228                           	global	LED_Blinking@k
   229  0070                     LED_Blinking@k:	; 2 bytes @ 0x0
   230                           	global	___lwdiv@divisor
   231  0070                     ___lwdiv@divisor:	; 2 bytes @ 0x0
   232                           	global	___lwmod@divisor
   233  0070                     ___lwmod@divisor:	; 2 bytes @ 0x0
   234                           	global	___ftpack@arg
   235  0070                     ___ftpack@arg:	; 3 bytes @ 0x0
   236  0070                     	ds	1
   237                           	global	LCD_4bitsend@data
   238  0071                     LCD_4bitsend@data:	; 1 bytes @ 0x1
   239  0071                     	ds	1
   240                           	global	??_LED_Blinking
   241  0072                     ??_LED_Blinking:	; 0 bytes @ 0x2
   242                           	global	??_ui_adc_read
   243  0072                     ??_ui_adc_read:	; 0 bytes @ 0x2
   244                           	global	??_LCD_command
   245  0072                     ??_LCD_command:	; 0 bytes @ 0x2
   246                           	global	??_LCD_senddata
   247  0072                     ??_LCD_senddata:	; 0 bytes @ 0x2
   248                           	global	LCD_command@var
   249  0072                     LCD_command@var:	; 1 bytes @ 0x2
   250                           	global	LCD_senddata@var
   251  0072                     LCD_senddata@var:	; 1 bytes @ 0x2
   252                           	global	___lwdiv@dividend
   253  0072                     ___lwdiv@dividend:	; 2 bytes @ 0x2
   254                           	global	___lwmod@dividend
   255  0072                     ___lwmod@dividend:	; 2 bytes @ 0x2
   256  0072                     	ds	1
   257                           	global	??_LCD_initialize
   258  0073                     ??_LCD_initialize:	; 0 bytes @ 0x3
   259                           	global	??_LCD_putstr
   260  0073                     ??_LCD_putstr:	; 0 bytes @ 0x3
   261                           	global	??_LCD_putchar
   262  0073                     ??_LCD_putchar:	; 0 bytes @ 0x3
   263                           	global	??_LCD_clear
   264  0073                     ??_LCD_clear:	; 0 bytes @ 0x3
   265                           	global	?_LCD_goto
   266  0073                     ?_LCD_goto:	; 0 bytes @ 0x3
   267                           	global	LCD_putchar@c_data
   268  0073                     LCD_putchar@c_data:	; 1 bytes @ 0x3
   269                           	global	LCD_goto@column
   270  0073                     LCD_goto@column:	; 1 bytes @ 0x3
   271                           	global	___ftpack@exp
   272  0073                     ___ftpack@exp:	; 1 bytes @ 0x3
   273  0073                     	ds	1
   274                           	global	??_LCD_goto
   275  0074                     ??_LCD_goto:	; 0 bytes @ 0x4
   276                           	global	??___lwdiv
   277  0074                     ??___lwdiv:	; 0 bytes @ 0x4
   278                           	global	??___lwmod
   279  0074                     ??___lwmod:	; 0 bytes @ 0x4
   280                           	global	LCD_putstr@csz_string
   281  0074                     LCD_putstr@csz_string:	; 1 bytes @ 0x4
   282                           	global	LCD_goto@row
   283  0074                     LCD_goto@row:	; 1 bytes @ 0x4
   284                           	global	___ftpack@sign
   285  0074                     ___ftpack@sign:	; 1 bytes @ 0x4
   286                           	global	ui_adc_read@ohm
   287  0074                     ui_adc_read@ohm:	; 2 bytes @ 0x4
   288  0074                     	ds	1
   289                           	global	??_initialize
   290  0075                     ??_initialize:	; 0 bytes @ 0x5
   291                           	global	??___ftpack
   292  0075                     ??___ftpack:	; 0 bytes @ 0x5
   293                           	global	___lwmod@counter
   294  0075                     ___lwmod@counter:	; 1 bytes @ 0x5
   295                           	global	___lwdiv@quotient
   296  0075                     ___lwdiv@quotient:	; 2 bytes @ 0x5
   297  0075                     	ds	2
   298                           	global	___lwdiv@counter
   299  0077                     ___lwdiv@counter:	; 1 bytes @ 0x7
   300  0077                     	ds	1
   301                           	global	?___fttol
   302  0078                     ?___fttol:	; 4 bytes @ 0x8
   303                           	global	___fttol@f1
   304  0078                     ___fttol@f1:	; 3 bytes @ 0x8
   305  0078                     	ds	4
   306                           	global	??___lwtoft
   307  007C                     ??___lwtoft:	; 0 bytes @ 0xC
   308  007C                     	ds	1
   309                           	global	??_main
   310  007D                     ??_main:	; 0 bytes @ 0xD
   311  007D                     	ds	1
   312                           psect	cstackBANK0,class=BANK0,space=1
   313                           global __pcstackBANK0
   314  0020                     __pcstackBANK0:
   315                           	global	??___fttol
   316  0020                     ??___fttol:	; 0 bytes @ 0x0
   317  0020                     	ds	4
   318                           	global	___fttol@sign1
   319  0024                     ___fttol@sign1:	; 1 bytes @ 0x4
   320  0024                     	ds	1
   321                           	global	___fttol@lval
   322  0025                     ___fttol@lval:	; 4 bytes @ 0x5
   323  0025                     	ds	4
   324                           	global	___fttol@exp1
   325  0029                     ___fttol@exp1:	; 1 bytes @ 0x9
   326  0029                     	ds	1
   327                           	global	?___lwtoft
   328  002A                     ?___lwtoft:	; 3 bytes @ 0xA
   329                           	global	___lwtoft@c
   330  002A                     ___lwtoft@c:	; 2 bytes @ 0xA
   331  002A                     	ds	3
   332                           	global	?___ftmul
   333  002D                     ?___ftmul:	; 3 bytes @ 0xD
   334                           	global	___ftmul@f1
   335  002D                     ___ftmul@f1:	; 3 bytes @ 0xD
   336  002D                     	ds	3
   337                           	global	___ftmul@f2
   338  0030                     ___ftmul@f2:	; 3 bytes @ 0x10
   339  0030                     	ds	3
   340                           	global	??___ftmul
   341  0033                     ??___ftmul:	; 0 bytes @ 0x13
   342  0033                     	ds	4
   343                           	global	___ftmul@exp
   344  0037                     ___ftmul@exp:	; 1 bytes @ 0x17
   345  0037                     	ds	1
   346                           	global	___ftmul@f3_as_product
   347  0038                     ___ftmul@f3_as_product:	; 3 bytes @ 0x18
   348  0038                     	ds	3
   349                           	global	___ftmul@cntr
   350  003B                     ___ftmul@cntr:	; 1 bytes @ 0x1B
   351  003B                     	ds	1
   352                           	global	___ftmul@sign
   353  003C                     ___ftmul@sign:	; 1 bytes @ 0x1C
   354  003C                     	ds	1
   355                           	global	main@value_
   356  003D                     main@value_:	; 4 bytes @ 0x1D
   357  003D                     	ds	4
   358                           	global	main@remainder
   359  0041                     main@remainder:	; 1 bytes @ 0x21
   360  0041                     	ds	1
   361                           	global	main@i
   362  0042                     main@i:	; 2 bytes @ 0x22
   363  0042                     	ds	2
   364                           	global	main@voltage
   365  0044                     main@voltage:	; 2 bytes @ 0x24
   366  0044                     	ds	2
   367                           	global	main@j
   368  0046                     main@j:	; 2 bytes @ 0x26
   369  0046                     	ds	2
   370                           	global	main@total
   371  0048                     main@total:	; 2 bytes @ 0x28
   372  0048                     	ds	2
   373                           ;!
   374                           ;!Data Sizes:
   375                           ;!    Strings     10
   376                           ;!    Constant    0
   377                           ;!    Data        0
   378                           ;!    BSS         4
   379                           ;!    Persistent  0
   380                           ;!    Stack       0
   381                           ;!
   382                           ;!Auto Spaces:
   383                           ;!    Space          Size  Autos    Used
   384                           ;!    COMMON           14     14      14
   385                           ;!    BANK0            80     42      46
   386                           ;!    BANK1            80      0       0
   387                           ;!    BANK3            96      0       0
   388                           ;!    BANK2            96      0       0
   389                           
   390                           ;!
   391                           ;!Pointer List with Targets:
   392                           ;!
   393                           ;!    ?___ftpack	float  size(1) Largest target is 0
   394                           ;!
   395                           ;!    ?___fttol	long  size(1) Largest target is 0
   396                           ;!
   397                           ;!    ?___lwmod	unsigned int  size(1) Largest target is 0
   398                           ;!
   399                           ;!    ?___ftmul	float  size(1) Largest target is 0
   400                           ;!
   401                           ;!    ?___lwtoft	float  size(1) Largest target is 0
   402                           ;!
   403                           ;!    ?___lwdiv	unsigned int  size(1) Largest target is 0
   404                           ;!
   405                           ;!    ?_ui_adc_read	unsigned int  size(1) Largest target is 0
   406                           ;!
   407                           ;!    LCD_putstr@csz_string	PTR unsigned char  size(1) Largest target is 10
   408                           ;!		 -> STR_1(CODE[10]), 
   409                           ;!
   410                           
   411                           
   412                           ;!
   413                           ;!Critical Paths under _main in COMMON
   414                           ;!
   415                           ;!    _main->___lwtoft
   416                           ;!    _LCD_putstr->_LCD_senddata
   417                           ;!    _LCD_putchar->_LCD_senddata
   418                           ;!    _LCD_senddata->_LCD_4bitsend
   419                           ;!    _LCD_goto->_LCD_command
   420                           ;!    _initialize->_LCD_initialize
   421                           ;!    _LCD_initialize->_LCD_command
   422                           ;!    _LCD_clear->_LCD_command
   423                           ;!    _LCD_command->_LCD_4bitsend
   424                           ;!    ___ftmul->___lwtoft
   425                           ;!    ___fttol->___ftpack
   426                           ;!    ___lwtoft->___fttol
   427                           ;!
   428                           ;!Critical Paths under _main in BANK0
   429                           ;!
   430                           ;!    _main->___ftmul
   431                           ;!    ___ftmul->___lwtoft
   432                           ;!    ___lwtoft->___fttol
   433                           ;!
   434                           ;!Critical Paths under _main in BANK1
   435                           ;!
   436                           ;!    None.
   437                           ;!
   438                           ;!Critical Paths under _main in BANK3
   439                           ;!
   440                           ;!    None.
   441                           ;!
   442                           ;!Critical Paths under _main in BANK2
   443                           ;!
   444                           ;!    None.
   445                           
   446 ;;
   447 ;;Main: autosize = 0, tempsize = 1, incstack = 0, save=0
   448 ;;
   449                           
   450                           ;!
   451                           ;!Call Graph Tables:
   452                           ;!
   453                           ;! ---------------------------------------------------------------------------------
   454                           ;! (Depth) Function   	        Calls       Base Space   Used Autos Params    Refs
   455                           ;! ---------------------------------------------------------------------------------
   456                           ;! (0) _main                                                14    14      0    3076
   457                           ;!                                             13 COMMON     1     1      0
   458                           ;!                                             29 BANK0     13    13      0
   459                           ;!                         _initialize
   460                           ;!                         _LCD_putstr
   461                           ;!                             _adc_on
   462                           ;!                        _ui_adc_read
   463                           ;!                            ___lwdiv
   464                           ;!                           ___lwtoft
   465                           ;!                            ___ftmul
   466                           ;!                            ___fttol
   467                           ;!                       _LED_Blinking
   468                           ;!                            ___lwmod
   469                           ;!                           _LCD_goto
   470                           ;!                        _LCD_putchar
   471                           ;!                            _adc_off
   472                           ;! ---------------------------------------------------------------------------------
   473                           ;! (1) _adc_on                                               0     0      0       0
   474                           ;! ---------------------------------------------------------------------------------
   475                           ;! (1) _adc_off                                              0     0      0       0
   476                           ;! ---------------------------------------------------------------------------------
   477                           ;! (1) _ui_adc_read                                          6     4      2      47
   478                           ;!                                              0 COMMON     6     4      2
   479                           ;! ---------------------------------------------------------------------------------
   480                           ;! (1) _LCD_putstr                                           2     2      0     243
   481                           ;!                                              3 COMMON     2     2      0
   482                           ;!                       _LCD_senddata
   483                           ;! ---------------------------------------------------------------------------------
   484                           ;! (1) _LCD_putchar                                          1     1      0     220
   485                           ;!                                              3 COMMON     1     1      0
   486                           ;!                       _LCD_senddata
   487                           ;! ---------------------------------------------------------------------------------
   488                           ;! (2) _LCD_senddata                                         1     1      0     198
   489                           ;!                                              2 COMMON     1     1      0
   490                           ;!                       _LCD_4bitsend
   491                           ;! ---------------------------------------------------------------------------------
   492                           ;! (1) _LCD_goto                                             2     1      1     264
   493                           ;!                                              3 COMMON     2     1      1
   494                           ;!                        _LCD_command
   495                           ;! ---------------------------------------------------------------------------------
   496                           ;! (1) _initialize                                           2     2      0     396
   497                           ;!                                              5 COMMON     2     2      0
   498                           ;!                     _adc_initialize
   499                           ;!                     _LCD_initialize
   500                           ;!                          _LCD_clear
   501                           ;! ---------------------------------------------------------------------------------
   502                           ;! (2) _adc_initialize                                       0     0      0       0
   503                           ;! ---------------------------------------------------------------------------------
   504                           ;! (2) _LCD_initialize                                       2     2      0     198
   505                           ;!                                              3 COMMON     2     2      0
   506                           ;!                        _LCD_command
   507                           ;! ---------------------------------------------------------------------------------
   508                           ;! (2) _LCD_clear                                            0     0      0     198
   509                           ;!                        _LCD_command
   510                           ;! ---------------------------------------------------------------------------------
   511                           ;! (2) _LCD_command                                          1     1      0     198
   512                           ;!                                              2 COMMON     1     1      0
   513                           ;!                       _LCD_4bitsend
   514                           ;! ---------------------------------------------------------------------------------
   515                           ;! (3) _LCD_4bitsend                                         2     2      0     176
   516                           ;!                                              0 COMMON     2     2      0
   517                           ;! ---------------------------------------------------------------------------------
   518                           ;! (1) _LED_Blinking                                         4     2      2     198
   519                           ;!                                              0 COMMON     4     2      2
   520                           ;! ---------------------------------------------------------------------------------
   521                           ;! (1) ___lwdiv                                              8     4      4     162
   522                           ;!                                              0 COMMON     8     4      4
   523                           ;! ---------------------------------------------------------------------------------
   524                           ;! (1) ___lwmod                                              6     2      4     159
   525                           ;!                                              0 COMMON     6     2      4
   526                           ;! ---------------------------------------------------------------------------------
   527                           ;! (1) ___ftmul                                             16    10      6     535
   528                           ;!                                             13 BANK0     16    10      6
   529                           ;!                           ___ftpack
   530                           ;!                           ___lwtoft (ARG)
   531                           ;!                            ___fttol (ARG)
   532                           ;! ---------------------------------------------------------------------------------
   533                           ;! (1) ___fttol                                             14    10      4     252
   534                           ;!                                              8 COMMON     4     0      4
   535                           ;!                                              0 BANK0     10    10      0
   536                           ;!                           ___ftpack (ARG)
   537                           ;! ---------------------------------------------------------------------------------
   538                           ;! (1) ___lwtoft                                             4     1      3     231
   539                           ;!                                             12 COMMON     1     1      0
   540                           ;!                                             10 BANK0      3     0      3
   541                           ;!                           ___ftpack
   542                           ;!                            ___fttol (ARG)
   543                           ;! ---------------------------------------------------------------------------------
   544                           ;! (2) ___ftpack                                             8     3      5     209
   545                           ;!                                              0 COMMON     8     3      5
   546                           ;! ---------------------------------------------------------------------------------
   547                           ;! Estimated maximum stack depth 3
   548                           ;! ---------------------------------------------------------------------------------
   549                           ;!
   550                           ;! Call Graph Graphs:
   551                           ;!
   552                           ;! _main (ROOT)
   553                           ;!   _initialize
   554                           ;!     _adc_initialize
   555                           ;!     _LCD_initialize
   556                           ;!       _LCD_command
   557                           ;!         _LCD_4bitsend
   558                           ;!     _LCD_clear
   559                           ;!       _LCD_command
   560                           ;!         _LCD_4bitsend
   561                           ;!   _LCD_putstr
   562                           ;!     _LCD_senddata
   563                           ;!       _LCD_4bitsend
   564                           ;!   _adc_on
   565                           ;!   _ui_adc_read
   566                           ;!   ___lwdiv
   567                           ;!   ___lwtoft
   568                           ;!     ___ftpack
   569                           ;!     ___fttol (ARG)
   570                           ;!       ___ftpack (ARG)
   571                           ;!   ___ftmul
   572                           ;!     ___ftpack
   573                           ;!     ___lwtoft (ARG)
   574                           ;!       ___ftpack
   575                           ;!       ___fttol (ARG)
   576                           ;!         ___ftpack (ARG)
   577                           ;!     ___fttol (ARG)
   578                           ;!       ___ftpack (ARG)
   579                           ;!   ___fttol
   580                           ;!     ___ftpack (ARG)
   581                           ;!   _LED_Blinking
   582                           ;!   ___lwmod
   583                           ;!   _LCD_goto
   584                           ;!     _LCD_command
   585                           ;!       _LCD_4bitsend
   586                           ;!   _LCD_putchar
   587                           ;!     _LCD_senddata
   588                           ;!       _LCD_4bitsend
   589                           ;!   _adc_off
   590                           ;!
   591                           
   592                           ;! Address spaces:
   593                           
   594                           ;!Name               Size   Autos  Total    Cost      Usage
   595                           ;!BITCOMMON            E      0       0       0        0.0%
   596                           ;!EEDATA             100      0       0       0        0.0%
   597                           ;!NULL                 0      0       0       0        0.0%
   598                           ;!CODE                 0      0       0       0        0.0%
   599                           ;!COMMON               E      E       E       1      100.0%
   600                           ;!BITSFR0              0      0       0       1        0.0%
   601                           ;!SFR0                 0      0       0       1        0.0%
   602                           ;!BITSFR1              0      0       0       2        0.0%
   603                           ;!SFR1                 0      0       0       2        0.0%
   604                           ;!STACK                0      0       4       2        0.0%
   605                           ;!ABS                  0      0      3C       3        0.0%
   606                           ;!BITBANK0            50      0       0       4        0.0%
   607                           ;!BITSFR3              0      0       0       4        0.0%
   608                           ;!SFR3                 0      0       0       4        0.0%
   609                           ;!BANK0               50     2A      2E       5       57.5%
   610                           ;!BITSFR2              0      0       0       5        0.0%
   611                           ;!SFR2                 0      0       0       5        0.0%
   612                           ;!BITBANK1            50      0       0       6        0.0%
   613                           ;!BANK1               50      0       0       7        0.0%
   614                           ;!BITBANK3            60      0       0       8        0.0%
   615                           ;!BANK3               60      0       0       9        0.0%
   616                           ;!BITBANK2            60      0       0      10        0.0%
   617                           ;!BANK2               60      0       0      11        0.0%
   618                           ;!DATA                 0      0      40      12        0.0%
   619                           
   620                           	global	_main
   621                           
   622 ;; *************** function _main *****************
   623 ;; Defined at:
   624 ;;		line 26 in file "Main.c"
   625 ;; Parameters:    Size  Location     Type
   626 ;;		None
   627 ;; Auto vars:     Size  Location     Type
   628 ;;  j               2   38[BANK0 ] unsigned int 
   629 ;;  value_          4   29[BANK0 ] unsigned char [4]
   630 ;;  remainder       1   33[BANK0 ] unsigned char 
   631 ;;  total           2   40[BANK0 ] unsigned int 
   632 ;;  voltage         2   36[BANK0 ] unsigned int 
   633 ;;  i               2   34[BANK0 ] unsigned int 
   634 ;; Return value:  Size  Location     Type
   635 ;;		None               void
   636 ;; Registers used:
   637 ;;		wreg, fsr0l, fsr0h, status,2, status,0, btemp+1, pclath, cstack
   638 ;; Tracked objects:
   639 ;;		On entry : 17F/0
   640 ;;		On exit  : 0/0
   641 ;;		Unchanged: 0/0
   642 ;; Data sizes:     COMMON   BANK0   BANK1   BANK3   BANK2
   643 ;;      Params:         0       0       0       0       0
   644 ;;      Locals:         0      13       0       0       0
   645 ;;      Temps:          1       0       0       0       0
   646 ;;      Totals:         1      13       0       0       0
   647 ;;Total ram usage:       14 bytes
   648 ;; Hardware stack levels required when called:    4
   649 ;; This function calls:
   650 ;;		_initialize
   651 ;;		_LCD_putstr
   652 ;;		_adc_on
   653 ;;		_ui_adc_read
   654 ;;		___lwdiv
   655 ;;		___lwtoft
   656 ;;		___ftmul
   657 ;;		___fttol
   658 ;;		_LED_Blinking
   659 ;;		___lwmod
   660 ;;		_LCD_goto
   661 ;;		_LCD_putchar
   662 ;;		_adc_off
   663 ;; This function is called by:
   664 ;;		Startup code after reset
   665 ;; This function uses a non-reentrant model
   666 ;;
   667                           psect	maintext,global,class=CODE,delta=2,split=1
   668                           global __pmaintext
   669  06D0                     __pmaintext:
   670                           psect	maintext
   671                           	file	"Main.c"
   672                           	line	26
   673                           	global	__size_of_main
   674  0130                     	__size_of_main	equ	__end_of_main-_main
   675                           	
   676  06D0                     _main:	
   677                           	opt	stack 4
   678                           ; Regs used in _main: [wreg-fsr0h+status,2+status,0+btemp+1+pclath+cstack]
   679                           	line	31
   680                           	
   681  06D0                     l1463:	
   682                           ;Main.c: 27: unsigned int total;
   683                           ;Main.c: 28: unsigned int i;
   684                           ;Main.c: 29: unsigned int voltage;
   685                           ;Main.c: 31: TRISA0 = 1;
   686  06D0  1683               	bsf	status, 5	;RP0=1, select bank1
   687  06D1  1303               	bcf	status, 6	;RP1=0, select bank1
   688  06D2  1405               	bsf	(1064/8)^080h,(1064)&7	;volatile
   689                           	line	32
   690                           	
   691  06D3                     l1465:	
   692                           ;Main.c: 32: TRISB = 0b00000001;
   693  06D3  3001               	movlw	(01h)
   694  06D4  0086               	movwf	(134)^080h	;volatile
   695                           	line	33
   696                           	
   697  06D5                     l1467:	
   698                           ;Main.c: 33: TRISC = 0x00;
   699  06D5  0187               	clrf	(135)^080h	;volatile
   700                           	line	34
   701                           	
   702  06D6                     l1469:	
   703                           ;Main.c: 34: initialize();
   704  06D6  120A  118A  21E0   	fcall	_initialize
              120A  118A         
   705                           	line	36
   706                           	
   707  06DB                     l1471:	
   708                           ;Main.c: 36: LCD_putstr(" Voltage:");
   709  06DB  3001               	movlw	((STR_1-__stringbase))&0ffh
   710  06DC  120A  118A  2213   	fcall	_LCD_putstr
              120A  118A         
   711                           	line	37
   712                           	
   713  06E1                     l1473:	
   714                           ;Main.c: 37: adc_on();
   715  06E1  120A  118A  2186   	fcall	_adc_on
              120A  118A         
   716                           	line	38
   717                           	
   718  06E6                     l1475:	
   719                           ;Main.c: 38: _delay((unsigned long)((1)*(2e6/4000.0)));
   720                           	opt asmopt_off
   721  06E6  30A6               movlw	166
   722  06E7  00FD               movwf	(??_main+0)+0,f
   723  06E8                     u1757:
   724  06E8  0BFD               decfsz	(??_main+0)+0,f
   725  06E9  2EE8               	goto	u1757
   726  06EA  0000               	nop
   727                           opt asmopt_on
   728                           
   729  06EB  2EEC               	goto	l1477
   730                           	line	40
   731                           ;Main.c: 40: while(1)
   732                           	
   733  06EC                     l133:	
   734                           	line	42
   735                           	
   736  06EC                     l1477:	
   737                           ;Main.c: 41: {
   738                           ;Main.c: 42: total = 0;
   739  06EC  1283               	bcf	status, 5	;RP0=0, select bank0
   740  06ED  1303               	bcf	status, 6	;RP1=0, select bank0
   741  06EE  01C8               	clrf	(main@total)
   742  06EF  01C9               	clrf	(main@total+1)
   743                           	line	43
   744                           	
   745  06F0                     l1479:	
   746                           ;Main.c: 43: for (i = 0; i<10; i++)
   747  06F0  01C2               	clrf	(main@i)
   748  06F1  01C3               	clrf	(main@i+1)
   749                           	
   750  06F2                     l1481:	
   751  06F2  3000               	movlw	high(0Ah)
   752  06F3  0243               	subwf	(main@i+1),w
   753  06F4  300A               	movlw	low(0Ah)
   754  06F5  1903               	skipnz
   755  06F6  0242               	subwf	(main@i),w
   756  06F7  1C03               	skipc
   757  06F8  2EFA               	goto	u1711
   758  06F9  2EFB               	goto	u1710
   759  06FA                     u1711:
   760  06FA  2EFD               	goto	l1485
   761  06FB                     u1710:
   762  06FB  2F1C               	goto	l1491
   763                           	
   764  06FC                     l1483:	
   765  06FC  2F1C               	goto	l1491
   766                           	line	44
   767                           	
   768  06FD                     l134:	
   769                           	line	45
   770                           	
   771  06FD                     l1485:	
   772                           ;Main.c: 44: {
   773                           ;Main.c: 45: total = (total + ui_adc_read());
   774  06FD  120A  118A  2234   	fcall	_ui_adc_read
              120A  118A         
   775  0702  1283               	bcf	status, 5	;RP0=0, select bank0
   776  0703  1303               	bcf	status, 6	;RP1=0, select bank0
   777  0704  0848               	movf	(main@total),w
   778  0705  0770               	addwf	(0+(?_ui_adc_read)),w
   779  0706  00C8               	movwf	(main@total)
   780  0707  0849               	movf	(main@total+1),w
   781  0708  1803               	skipnc
   782  0709  0A49               	incf	(main@total+1),w
   783  070A  0771               	addwf	(1+(?_ui_adc_read)),w
   784  070B  00C9               	movwf	1+(main@total)
   785                           	line	43
   786                           	
   787  070C                     l1487:	
   788  070C  3001               	movlw	low(01h)
   789  070D  07C2               	addwf	(main@i),f
   790  070E  1803               	skipnc
   791  070F  0AC3               	incf	(main@i+1),f
   792  0710  3000               	movlw	high(01h)
   793  0711  07C3               	addwf	(main@i+1),f
   794                           	
   795  0712                     l1489:	
   796  0712  3000               	movlw	high(0Ah)
   797  0713  0243               	subwf	(main@i+1),w
   798  0714  300A               	movlw	low(0Ah)
   799  0715  1903               	skipnz
   800  0716  0242               	subwf	(main@i),w
   801  0717  1C03               	skipc
   802  0718  2F1A               	goto	u1721
   803  0719  2F1B               	goto	u1720
   804  071A                     u1721:
   805  071A  2EFD               	goto	l1485
   806  071B                     u1720:
   807  071B  2F1C               	goto	l1491
   808                           	
   809  071C                     l135:	
   810                           	line	47
   811                           	
   812  071C                     l1491:	
   813                           ;Main.c: 46: }
   814                           ;Main.c: 47: total = total/10;
   815  071C  300A               	movlw	low(0Ah)
   816  071D  00F0               	movwf	(?___lwdiv)
   817  071E  3000               	movlw	high(0Ah)
   818  071F  00F1               	movwf	((?___lwdiv))+1
   819  0720  0849               	movf	(main@total+1),w
   820  0721  01F3               	clrf	1+(?___lwdiv)+02h
   821  0722  07F3               	addwf	1+(?___lwdiv)+02h
   822  0723  0848               	movf	(main@total),w
   823  0724  01F2               	clrf	0+(?___lwdiv)+02h
   824  0725  07F2               	addwf	0+(?___lwdiv)+02h
   825                           
   826  0726  120A  118A  22A8   	fcall	___lwdiv
              120A  118A         
   827  072B  0871               	movf	(1+(?___lwdiv)),w
   828  072C  1283               	bcf	status, 5	;RP0=0, select bank0
   829  072D  1303               	bcf	status, 6	;RP1=0, select bank0
   830  072E  01C9               	clrf	(main@total+1)
   831  072F  07C9               	addwf	(main@total+1)
   832  0730  0870               	movf	(0+(?___lwdiv)),w
   833  0731  01C8               	clrf	(main@total)
   834  0732  07C8               	addwf	(main@total)
   835                           
   836                           	line	48
   837                           ;Main.c: 48: voltage =(float)(total *(5.0/1024)*1000);
   838  0733  0849               	movf	(main@total+1),w
   839  0734  01AB               	clrf	(?___lwtoft+1)
   840  0735  07AB               	addwf	(?___lwtoft+1)
   841  0736  0848               	movf	(main@total),w
   842  0737  01AA               	clrf	(?___lwtoft)
   843  0738  07AA               	addwf	(?___lwtoft)
   844                           
   845  0739  120A  118A  21F8   	fcall	___lwtoft
              120A  118A         
   846  073E  1283               	bcf	status, 5	;RP0=0, select bank0
   847  073F  1303               	bcf	status, 6	;RP1=0, select bank0
   848  0740  082A               	movf	(0+(?___lwtoft)),w
   849  0741  00B0               	movwf	0+(?___ftmul)+03h
   850  0742  082B               	movf	(1+(?___lwtoft)),w
   851  0743  00B1               	movwf	1+(?___ftmul)+03h
   852  0744  082C               	movf	(2+(?___lwtoft)),w
   853  0745  00B2               	movwf	2+(?___ftmul)+03h
   854  0746  3040               	movlw	0x40
   855  0747  00AD               	movwf	(?___ftmul)
   856  0748  309C               	movlw	0x9c
   857  0749  00AE               	movwf	(?___ftmul+1)
   858  074A  3040               	movlw	0x40
   859  074B  00AF               	movwf	(?___ftmul+2)
   860  074C  120A  118A  25E2   	fcall	___ftmul
              120A  118A         
   861  0751  1283               	bcf	status, 5	;RP0=0, select bank0
   862  0752  1303               	bcf	status, 6	;RP1=0, select bank0
   863  0753  082D               	movf	(0+(?___ftmul)),w
   864  0754  00F8               	movwf	(?___fttol)
   865  0755  082E               	movf	(1+(?___ftmul)),w
   866  0756  00F9               	movwf	(?___fttol+1)
   867  0757  082F               	movf	(2+(?___ftmul)),w
   868  0758  00FA               	movwf	(?___fttol+2)
   869  0759  120A  118A  253C   	fcall	___fttol
              120A  118A         
   870  075E  0879               	movf	1+(((0+(?___fttol)))),w
   871  075F  1283               	bcf	status, 5	;RP0=0, select bank0
   872  0760  1303               	bcf	status, 6	;RP1=0, select bank0
   873  0761  01C5               	clrf	(main@voltage+1)
   874  0762  07C5               	addwf	(main@voltage+1)
   875  0763  0878               	movf	0+(((0+(?___fttol)))),w
   876  0764  01C4               	clrf	(main@voltage)
   877  0765  07C4               	addwf	(main@voltage)
   878                           
   879                           	line	49
   880                           ;Main.c: 49: LED_Blinking(voltage);
   881  0766  0845               	movf	(main@voltage+1),w
   882  0767  01F1               	clrf	(?_LED_Blinking+1)
   883  0768  07F1               	addwf	(?_LED_Blinking+1)
   884  0769  0844               	movf	(main@voltage),w
   885  076A  01F0               	clrf	(?_LED_Blinking)
   886  076B  07F0               	addwf	(?_LED_Blinking)
   887                           
   888  076C  120A  118A  2498   	fcall	_LED_Blinking
              120A  118A         
   889                           	line	51
   890                           	
   891  0771                     l1493:	
   892                           ;Main.c: 51: unsigned char value_[4] = {0};
   893  0771  1283               	bcf	status, 5	;RP0=0, select bank0
   894  0772  1303               	bcf	status, 6	;RP1=0, select bank0
   895  0773  084D               	movf	(main@F1161+3),w
   896  0774  00C0               	movwf	(main@value_+3)
   897  0775  084C               	movf	(main@F1161+2),w
   898  0776  00BF               	movwf	(main@value_+2)
   899  0777  084B               	movf	(main@F1161+1),w
   900  0778  00BE               	movwf	(main@value_+1)
   901  0779  084A               	movf	(main@F1161),w
   902  077A  00BD               	movwf	(main@value_)
   903                           
   904                           	line	52
   905                           	
   906  077B                     l1495:	
   907                           ;Main.c: 52: unsigned char remainder = 0;
   908  077B  01C1               	clrf	(main@remainder)
   909                           	line	53
   910                           	
   911  077C                     l1497:	
   912                           ;Main.c: 53: for(unsigned int j = 0; j < 4; j++)
   913  077C  01C6               	clrf	(main@j)
   914  077D  01C7               	clrf	(main@j+1)
   915                           	
   916  077E                     l1499:	
   917  077E  3000               	movlw	high(04h)
   918  077F  0247               	subwf	(main@j+1),w
   919  0780  3004               	movlw	low(04h)
   920  0781  1903               	skipnz
   921  0782  0246               	subwf	(main@j),w
   922  0783  1C03               	skipc
   923  0784  2F86               	goto	u1731
   924  0785  2F87               	goto	u1730
   925  0786                     u1731:
   926  0786  2F89               	goto	l1503
   927  0787                     u1730:
   928  0787  2FCE               	goto	l1511
   929                           	
   930  0788                     l1501:	
   931  0788  2FCE               	goto	l1511
   932                           	line	54
   933                           	
   934  0789                     l138:	
   935                           	line	55
   936                           	
   937  0789                     l1503:	
   938                           ;Main.c: 54: {
   939                           ;Main.c: 55: remainder = voltage%10;
   940  0789  300A               	movlw	low(0Ah)
   941  078A  00F0               	movwf	(?___lwmod)
   942  078B  3000               	movlw	high(0Ah)
   943  078C  00F1               	movwf	((?___lwmod))+1
   944  078D  0845               	movf	(main@voltage+1),w
   945  078E  01F3               	clrf	1+(?___lwmod)+02h
   946  078F  07F3               	addwf	1+(?___lwmod)+02h
   947  0790  0844               	movf	(main@voltage),w
   948  0791  01F2               	clrf	0+(?___lwmod)+02h
   949  0792  07F2               	addwf	0+(?___lwmod)+02h
   950                           
   951  0793  120A  118A  2264   	fcall	___lwmod
              120A  118A         
   952  0798  0870               	movf	(0+(?___lwmod)),w
   953  0799  00FD               	movwf	(??_main+0)+0
   954  079A  087D               	movf	(??_main+0)+0,w
   955  079B  1283               	bcf	status, 5	;RP0=0, select bank0
   956  079C  1303               	bcf	status, 6	;RP1=0, select bank0
   957  079D  00C1               	movwf	(main@remainder)
   958                           	line	56
   959                           ;Main.c: 56: voltage = voltage/10;
   960  079E  300A               	movlw	low(0Ah)
   961  079F  00F0               	movwf	(?___lwdiv)
   962  07A0  3000               	movlw	high(0Ah)
   963  07A1  00F1               	movwf	((?___lwdiv))+1
   964  07A2  0845               	movf	(main@voltage+1),w
   965  07A3  01F3               	clrf	1+(?___lwdiv)+02h
   966  07A4  07F3               	addwf	1+(?___lwdiv)+02h
   967  07A5  0844               	movf	(main@voltage),w
   968  07A6  01F2               	clrf	0+(?___lwdiv)+02h
   969  07A7  07F2               	addwf	0+(?___lwdiv)+02h
   970                           
   971  07A8  120A  118A  22A8   	fcall	___lwdiv
              120A  118A         
   972  07AD  0871               	movf	(1+(?___lwdiv)),w
   973  07AE  1283               	bcf	status, 5	;RP0=0, select bank0
   974  07AF  1303               	bcf	status, 6	;RP1=0, select bank0
   975  07B0  01C5               	clrf	(main@voltage+1)
   976  07B1  07C5               	addwf	(main@voltage+1)
   977  07B2  0870               	movf	(0+(?___lwdiv)),w
   978  07B3  01C4               	clrf	(main@voltage)
   979  07B4  07C4               	addwf	(main@voltage)
   980                           
   981                           	line	57
   982                           	
   983  07B5                     l1505:	
   984                           ;Main.c: 57: value_[j] = remainder + 0x30;
   985  07B5  0841               	movf	(main@remainder),w
   986  07B6  3E30               	addlw	030h
   987  07B7  00FD               	movwf	(??_main+0)+0
   988  07B8  0846               	movf	(main@j),w
   989  07B9  3E3D               	addlw	main@value_&0ffh
   990  07BA  0084               	movwf	fsr0
   991  07BB  087D               	movf	(??_main+0)+0,w
   992  07BC  1383               	bcf	status, 7	;select IRP bank0
   993  07BD  0080               	movwf	indf
   994                           	line	53
   995                           	
   996  07BE                     l1507:	
   997  07BE  3001               	movlw	low(01h)
   998  07BF  07C6               	addwf	(main@j),f
   999  07C0  1803               	skipnc
  1000  07C1  0AC7               	incf	(main@j+1),f
  1001  07C2  3000               	movlw	high(01h)
  1002  07C3  07C7               	addwf	(main@j+1),f
  1003                           	
  1004  07C4                     l1509:	
  1005  07C4  3000               	movlw	high(04h)
  1006  07C5  0247               	subwf	(main@j+1),w
  1007  07C6  3004               	movlw	low(04h)
  1008  07C7  1903               	skipnz
  1009  07C8  0246               	subwf	(main@j),w
  1010  07C9  1C03               	skipc
  1011  07CA  2FCC               	goto	u1741
  1012  07CB  2FCD               	goto	u1740
  1013  07CC                     u1741:
  1014  07CC  2F89               	goto	l1503
  1015  07CD                     u1740:
  1016  07CD  2FCE               	goto	l1511
  1017                           	
  1018  07CE                     l139:	
  1019                           	line	60
  1020                           	
  1021  07CE                     l1511:	
  1022                           ;Main.c: 58: }
  1023                           ;Main.c: 60: LCD_goto(0,0x40);
  1024  07CE  3040               	movlw	(040h)
  1025  07CF  00FD               	movwf	(??_main+0)+0
  1026  07D0  087D               	movf	(??_main+0)+0,w
  1027  07D1  00F3               	movwf	(?_LCD_goto)
  1028  07D2  3000               	movlw	(0)
  1029  07D3  120A  118A  21C9   	fcall	_LCD_goto
              120A  118A         
  1030                           	line	61
  1031                           ;Main.c: 61: LCD_putchar(value_[3]);
  1032  07D8  1283               	bcf	status, 5	;RP0=0, select bank0
  1033  07D9  1303               	bcf	status, 6	;RP1=0, select bank0
  1034  07DA  0840               	movf	0+(main@value_)+03h,w
  1035  07DB  120A  118A  2191   	fcall	_LCD_putchar
              120A  118A         
  1036                           	line	62
  1037                           ;Main.c: 62: LCD_putchar('.');
  1038  07E0  302E               	movlw	(02Eh)
  1039  07E1  120A  118A  2191   	fcall	_LCD_putchar
              120A  118A         
  1040                           	line	63
  1041                           ;Main.c: 63: LCD_putchar(value_[2]);
  1042  07E6  1283               	bcf	status, 5	;RP0=0, select bank0
  1043  07E7  1303               	bcf	status, 6	;RP1=0, select bank0
  1044  07E8  083F               	movf	0+(main@value_)+02h,w
  1045  07E9  120A  118A  2191   	fcall	_LCD_putchar
              120A  118A         
  1046                           	line	64
  1047                           ;Main.c: 64: LCD_putchar(value_[1]);
  1048  07EE  1283               	bcf	status, 5	;RP0=0, select bank0
  1049  07EF  1303               	bcf	status, 6	;RP1=0, select bank0
  1050  07F0  083E               	movf	0+(main@value_)+01h,w
  1051  07F1  120A  118A  2191   	fcall	_LCD_putchar
              120A  118A         
  1052  07F6  2EEC               	goto	l1477
  1053                           	line	66
  1054                           	
  1055  07F7                     l140:	
  1056                           	line	40
  1057  07F7  2EEC               	goto	l1477
  1058                           	
  1059  07F8                     l141:	
  1060                           	line	67
  1061                           	
  1062  07F8                     l1513:	
  1063                           ;Main.c: 66: }
  1064                           ;Main.c: 67: adc_off();
  1065  07F8  120A  118A  2182   	fcall	_adc_off
              120A  118A         
  1066                           	line	68
  1067                           	
  1068  07FD                     l142:	
  1069                           	global	start
  1070  07FD  120A  118A  2800   	ljmp	start
  1071                           	opt stack 0
  1072                           GLOBAL	__end_of_main
  1073  0800                     	__end_of_main:
  1074                           	signat	_main,88
  1075                           	global	_adc_on
  1076                           
  1077 ;; *************** function _adc_on *****************
  1078 ;; Defined at:
  1079 ;;		line 53 in file "adc.c"
  1080 ;; Parameters:    Size  Location     Type
  1081 ;;		None
  1082 ;; Auto vars:     Size  Location     Type
  1083 ;;		None
  1084 ;; Return value:  Size  Location     Type
  1085 ;;		None               void
  1086 ;; Registers used:
  1087 ;;		None
  1088 ;; Tracked objects:
  1089 ;;		On entry : 0/0
  1090 ;;		On exit  : 0/0
  1091 ;;		Unchanged: 0/0
  1092 ;; Data sizes:     COMMON   BANK0   BANK1   BANK3   BANK2
  1093 ;;      Params:         0       0       0       0       0
  1094 ;;      Locals:         0       0       0       0       0
  1095 ;;      Temps:          0       0       0       0       0
  1096 ;;      Totals:         0       0       0       0       0
  1097 ;;Total ram usage:        0 bytes
  1098 ;; Hardware stack levels used:    1
  1099 ;; This function calls:
  1100 ;;		Nothing
  1101 ;; This function is called by:
  1102 ;;		_main
  1103 ;; This function uses a non-reentrant model
  1104 ;;
  1105                           psect	text403,local,class=CODE,delta=2,merge=1
  1106                           global __ptext403
  1107  0186                     __ptext403:
  1108                           psect	text403
  1109                           	file	"adc.c"
  1110                           	line	53
  1111                           	global	__size_of_adc_on
  1112  0004                     	__size_of_adc_on	equ	__end_of_adc_on-_adc_on
  1113                           	
  1114  0186                     _adc_on:	
  1115                           	opt	stack 7
  1116                           ; Regs used in _adc_on: []
  1117                           	line	55
  1118                           	
  1119  0186                     l1121:	
  1120                           ;adc.c: 55: ADON = 1;
  1121  0186  1283               	bcf	status, 5	;RP0=0, select bank0
  1122  0187  1303               	bcf	status, 6	;RP1=0, select bank0
  1123  0188  141F               	bsf	(248/8),(248)&7	;volatile
  1124                           	line	56
  1125                           	
  1126  0189                     l38:	
  1127  0189  0008               	return
  1128                           	opt stack 0
  1129                           GLOBAL	__end_of_adc_on
  1130  018A                     	__end_of_adc_on:
  1131                           	signat	_adc_on,88
  1132                           	global	_adc_off
  1133                           
  1134 ;; *************** function _adc_off *****************
  1135 ;; Defined at:
  1136 ;;		line 72 in file "adc.c"
  1137 ;; Parameters:    Size  Location     Type
  1138 ;;		None
  1139 ;; Auto vars:     Size  Location     Type
  1140 ;;		None
  1141 ;; Return value:  Size  Location     Type
  1142 ;;		None               void
  1143 ;; Registers used:
  1144 ;;		None
  1145 ;; Tracked objects:
  1146 ;;		On entry : 0/0
  1147 ;;		On exit  : 0/0
  1148 ;;		Unchanged: 0/0
  1149 ;; Data sizes:     COMMON   BANK0   BANK1   BANK3   BANK2
  1150 ;;      Params:         0       0       0       0       0
  1151 ;;      Locals:         0       0       0       0       0
  1152 ;;      Temps:          0       0       0       0       0
  1153 ;;      Totals:         0       0       0       0       0
  1154 ;;Total ram usage:        0 bytes
  1155 ;; Hardware stack levels used:    1
  1156 ;; This function calls:
  1157 ;;		Nothing
  1158 ;; This function is called by:
  1159 ;;		_main
  1160 ;; This function uses a non-reentrant model
  1161 ;;
  1162                           psect	text404,local,class=CODE,delta=2,merge=1
  1163                           global __ptext404
  1164  0182                     __ptext404:
  1165                           psect	text404
  1166                           	file	"adc.c"
  1167                           	line	72
  1168                           	global	__size_of_adc_off
  1169  0004                     	__size_of_adc_off	equ	__end_of_adc_off-_adc_off
  1170                           	
  1171  0182                     _adc_off:	
  1172                           	opt	stack 7
  1173                           ; Regs used in _adc_off: []
  1174                           	line	74
  1175                           	
  1176  0182                     l1123:	
  1177                           ;adc.c: 74: ADON = 0;
  1178  0182  1283               	bcf	status, 5	;RP0=0, select bank0
  1179  0183  1303               	bcf	status, 6	;RP1=0, select bank0
  1180  0184  101F               	bcf	(248/8),(248)&7	;volatile
  1181                           	line	75
  1182                           	
  1183  0185                     l41:	
  1184  0185  0008               	return
  1185                           	opt stack 0
  1186                           GLOBAL	__end_of_adc_off
  1187  0186                     	__end_of_adc_off:
  1188                           	signat	_adc_off,88
  1189                           	global	_ui_adc_read
  1190                           
  1191 ;; *************** function _ui_adc_read *****************
  1192 ;; Defined at:
  1193 ;;		line 91 in file "adc.c"
  1194 ;; Parameters:    Size  Location     Type
  1195 ;;		None
  1196 ;; Auto vars:     Size  Location     Type
  1197 ;;  ohm             2    4[COMMON] unsigned int 
  1198 ;; Return value:  Size  Location     Type
  1199 ;;                  2    0[COMMON] unsigned int 
  1200 ;; Registers used:
  1201 ;;		wreg, status,2, status,0, btemp+1
  1202 ;; Tracked objects:
  1203 ;;		On entry : 0/0
  1204 ;;		On exit  : 0/0
  1205 ;;		Unchanged: 0/0
  1206 ;; Data sizes:     COMMON   BANK0   BANK1   BANK3   BANK2
  1207 ;;      Params:         2       0       0       0       0
  1208 ;;      Locals:         2       0       0       0       0
  1209 ;;      Temps:          2       0       0       0       0
  1210 ;;      Totals:         6       0       0       0       0
  1211 ;;Total ram usage:        6 bytes
  1212 ;; Hardware stack levels used:    1
  1213 ;; This function calls:
  1214 ;;		Nothing
  1215 ;; This function is called by:
  1216 ;;		_main
  1217 ;; This function uses a non-reentrant model
  1218 ;;
  1219                           psect	text405,local,class=CODE,delta=2,merge=1
  1220                           global __ptext405
  1221  0234                     __ptext405:
  1222                           psect	text405
  1223                           	file	"adc.c"
  1224                           	line	91
  1225                           	global	__size_of_ui_adc_read
  1226  0030                     	__size_of_ui_adc_read	equ	__end_of_ui_adc_read-_ui_adc_read
  1227                           	
  1228  0234                     _ui_adc_read:	
  1229                           	opt	stack 7
  1230                           ; Regs used in _ui_adc_read: [wreg+status,2+status,0+btemp+1]
  1231                           	line	92
  1232                           	
  1233  0234                     l1203:	
  1234                           ;adc.c: 92: unsigned int ohm = 0;
  1235  0234  01F4               	clrf	(ui_adc_read@ohm)
  1236  0235  01F5               	clrf	(ui_adc_read@ohm+1)
  1237                           	line	94
  1238                           	
  1239  0236                     l1205:	
  1240                           ;adc.c: 94: CHS2 = 0;
  1241  0236  1283               	bcf	status, 5	;RP0=0, select bank0
  1242  0237  1303               	bcf	status, 6	;RP1=0, select bank0
  1243  0238  129F               	bcf	(253/8),(253)&7	;volatile
  1244                           	line	95
  1245                           	
  1246  0239                     l1207:	
  1247                           ;adc.c: 95: CHS1 = 0;
  1248  0239  121F               	bcf	(252/8),(252)&7	;volatile
  1249                           	line	96
  1250                           	
  1251  023A                     l1209:	
  1252                           ;adc.c: 96: CHS0 = 0;
  1253  023A  119F               	bcf	(251/8),(251)&7	;volatile
  1254                           	line	99
  1255                           	
  1256  023B                     l1211:	
  1257                           ;adc.c: 99: _delay((unsigned long)((1)*(2e6/4000.0)));
  1258                           	opt asmopt_off
  1259  023B  30A6               movlw	166
  1260  023C  00F2               movwf	(??_ui_adc_read+0)+0,f
  1261  023D                     u1767:
  1262  023D  0BF2               decfsz	(??_ui_adc_read+0)+0,f
  1263  023E  2A3D               	goto	u1767
  1264  023F  0000               	nop
  1265                           opt asmopt_on
  1266                           
  1267                           	line	102
  1268                           	
  1269  0240                     l1213:	
  1270                           ;adc.c: 102: GO = 1;
  1271  0240  1283               	bcf	status, 5	;RP0=0, select bank0
  1272  0241  1303               	bcf	status, 6	;RP1=0, select bank0
  1273  0242  151F               	bsf	(250/8),(250)&7	;volatile
  1274                           	line	103
  1275                           ;adc.c: 103: while (GO == 1);
  1276  0243  2A44               	goto	l44
  1277                           	
  1278  0244                     l45:	
  1279                           	
  1280  0244                     l44:	
  1281  0244  191F               	btfsc	(250/8),(250)&7	;volatile
  1282  0245  2A47               	goto	u1121
  1283  0246  2A48               	goto	u1120
  1284  0247                     u1121:
  1285  0247  2A44               	goto	l44
  1286  0248                     u1120:
  1287  0248  2A49               	goto	l1215
  1288                           	
  1289  0249                     l46:	
  1290                           	line	105
  1291                           	
  1292  0249                     l1215:	
  1293                           ;adc.c: 105: ohm = (unsigned int)ADRESH << 8;
  1294  0249  081E               	movf	(30),w	;volatile
  1295  024A  00F2               	movwf	(??_ui_adc_read+0)+0+0
  1296  024B  01F3               	clrf	(??_ui_adc_read+0)+0+1
  1297  024C  0872               	movf	(??_ui_adc_read+0)+0,w
  1298  024D  00F3               	movwf	(??_ui_adc_read+0)+1
  1299  024E  01F2               	clrf	(??_ui_adc_read+0)+0
  1300  024F  0872               	movf	0+(??_ui_adc_read+0)+0,w
  1301  0250  00F4               	movwf	(ui_adc_read@ohm)
  1302  0251  0873               	movf	1+(??_ui_adc_read+0)+0,w
  1303  0252  00F5               	movwf	(ui_adc_read@ohm+1)
  1304                           	line	106
  1305                           	
  1306  0253                     l1217:	
  1307                           ;adc.c: 106: ohm = ohm + ADRESL;
  1308  0253  1683               	bsf	status, 5	;RP0=1, select bank1
  1309  0254  1303               	bcf	status, 6	;RP1=0, select bank1
  1310  0255  081E               	movf	(158)^080h,w	;volatile
  1311  0256  0774               	addwf	(ui_adc_read@ohm),w
  1312  0257  00F4               	movwf	(ui_adc_read@ohm)
  1313  0258  0875               	movf	(ui_adc_read@ohm+1),w
  1314  0259  1803               	skipnc
  1315  025A  0A75               	incf	(ui_adc_read@ohm+1),w
  1316  025B  00F5               	movwf	((ui_adc_read@ohm))+1
  1317                           	line	107
  1318                           	
  1319  025C                     l1219:	
  1320                           ;adc.c: 107: return ohm;
  1321  025C  0875               	movf	(ui_adc_read@ohm+1),w
  1322  025D  01F1               	clrf	(?_ui_adc_read+1)
  1323  025E  07F1               	addwf	(?_ui_adc_read+1)
  1324  025F  0874               	movf	(ui_adc_read@ohm),w
  1325  0260  01F0               	clrf	(?_ui_adc_read)
  1326  0261  07F0               	addwf	(?_ui_adc_read)
  1327                           
  1328  0262  2A63               	goto	l47
  1329                           	
  1330  0263                     l1221:	
  1331                           	line	108
  1332                           	
  1333  0263                     l47:	
  1334  0263  0008               	return
  1335                           	opt stack 0
  1336                           GLOBAL	__end_of_ui_adc_read
  1337  0264                     	__end_of_ui_adc_read:
  1338                           	signat	_ui_adc_read,90
  1339                           	global	_LCD_putstr
  1340                           
  1341 ;; *************** function _LCD_putstr *****************
  1342 ;; Defined at:
  1343 ;;		line 106 in file "lcd.c"
  1344 ;; Parameters:    Size  Location     Type
  1345 ;;  csz_string      1    wreg     PTR unsigned char 
  1346 ;;		 -> STR_1(10), 
  1347 ;; Auto vars:     Size  Location     Type
  1348 ;;  csz_string      1    4[COMMON] PTR unsigned char 
  1349 ;;		 -> STR_1(10), 
  1350 ;; Return value:  Size  Location     Type
  1351 ;;		None               void
  1352 ;; Registers used:
  1353 ;;		wreg, fsr0l, fsr0h, status,2, status,0, pclath, cstack
  1354 ;; Tracked objects:
  1355 ;;		On entry : 0/0
  1356 ;;		On exit  : 0/0
  1357 ;;		Unchanged: 0/0
  1358 ;; Data sizes:     COMMON   BANK0   BANK1   BANK3   BANK2
  1359 ;;      Params:         0       0       0       0       0
  1360 ;;      Locals:         1       0       0       0       0
  1361 ;;      Temps:          1       0       0       0       0
  1362 ;;      Totals:         2       0       0       0       0
  1363 ;;Total ram usage:        2 bytes
  1364 ;; Hardware stack levels used:    1
  1365 ;; Hardware stack levels required when called:    2
  1366 ;; This function calls:
  1367 ;;		_LCD_senddata
  1368 ;; This function is called by:
  1369 ;;		_main
  1370 ;; This function uses a non-reentrant model
  1371 ;;
  1372                           psect	text406,local,class=CODE,delta=2,merge=1
  1373                           global __ptext406
  1374  0213                     __ptext406:
  1375                           psect	text406
  1376                           	file	"lcd.c"
  1377                           	line	106
  1378                           	global	__size_of_LCD_putstr
  1379  0021                     	__size_of_LCD_putstr	equ	__end_of_LCD_putstr-_LCD_putstr
  1380                           	
  1381  0213                     _LCD_putstr:	
  1382                           	opt	stack 5
  1383                           ; Regs used in _LCD_putstr: [wreg-fsr0h+status,2+status,0+pclath+cstack]
  1384                           ;LCD_putstr@csz_string stored from wreg
  1385  0213  00F4               	movwf	(LCD_putstr@csz_string)
  1386                           	line	108
  1387                           	
  1388  0214                     l1441:	
  1389                           ;lcd.c: 108: while (*csz_string != '\0')
  1390  0214  2A26               	goto	l1447
  1391                           	
  1392  0215                     l79:	
  1393                           	line	110
  1394                           	
  1395  0215                     l1443:	
  1396                           ;lcd.c: 109: {
  1397                           ;lcd.c: 110: LCD_senddata(*csz_string);
  1398  0215  0874               	movf	(LCD_putstr@csz_string),w
  1399  0216  0084               	movwf	fsr0
  1400  0217  120A  118A  2003   	fcall	stringdir
              120A  118A         
  1401  021C  120A  118A  21AC   	fcall	_LCD_senddata
              120A  118A         
  1402                           	line	111
  1403                           	
  1404  0221                     l1445:	
  1405                           ;lcd.c: 111: csz_string++;
  1406  0221  3001               	movlw	(01h)
  1407  0222  00F3               	movwf	(??_LCD_putstr+0)+0
  1408  0223  0873               	movf	(??_LCD_putstr+0)+0,w
  1409  0224  07F4               	addwf	(LCD_putstr@csz_string),f
  1410  0225  2A26               	goto	l1447
  1411                           	line	112
  1412                           	
  1413  0226                     l78:	
  1414                           	line	108
  1415                           	
  1416  0226                     l1447:	
  1417  0226  0874               	movf	(LCD_putstr@csz_string),w
  1418  0227  0084               	movwf	fsr0
  1419  0228  120A  118A  2003   	fcall	stringdir
              120A  118A         
  1420  022D  3800               	iorlw	0
  1421  022E  1D03               	skipz
  1422  022F  2A31               	goto	u1691
  1423  0230  2A32               	goto	u1690
  1424  0231                     u1691:
  1425  0231  2A15               	goto	l1443
  1426  0232                     u1690:
  1427  0232  2A33               	goto	l81
  1428                           	
  1429  0233                     l80:	
  1430                           	line	113
  1431                           	
  1432  0233                     l81:	
  1433  0233  0008               	return
  1434                           	opt stack 0
  1435                           GLOBAL	__end_of_LCD_putstr
  1436  0234                     	__end_of_LCD_putstr:
  1437                           	signat	_LCD_putstr,4216
  1438                           	global	_LCD_putchar
  1439                           
  1440 ;; *************** function _LCD_putchar *****************
  1441 ;; Defined at:
  1442 ;;		line 116 in file "lcd.c"
  1443 ;; Parameters:    Size  Location     Type
  1444 ;;  c_data          1    wreg     unsigned char 
  1445 ;; Auto vars:     Size  Location     Type
  1446 ;;  c_data          1    3[COMMON] unsigned char 
  1447 ;; Return value:  Size  Location     Type
  1448 ;;		None               void
  1449 ;; Registers used:
  1450 ;;		wreg, status,2, status,0, pclath, cstack
  1451 ;; Tracked objects:
  1452 ;;		On entry : 0/0
  1453 ;;		On exit  : 0/0
  1454 ;;		Unchanged: 0/0
  1455 ;; Data sizes:     COMMON   BANK0   BANK1   BANK3   BANK2
  1456 ;;      Params:         0       0       0       0       0
  1457 ;;      Locals:         1       0       0       0       0
  1458 ;;      Temps:          0       0       0       0       0
  1459 ;;      Totals:         1       0       0       0       0
  1460 ;;Total ram usage:        1 bytes
  1461 ;; Hardware stack levels used:    1
  1462 ;; Hardware stack levels required when called:    2
  1463 ;; This function calls:
  1464 ;;		_LCD_senddata
  1465 ;; This function is called by:
  1466 ;;		_main
  1467 ;; This function uses a non-reentrant model
  1468 ;;
  1469                           psect	text407,local,class=CODE,delta=2,merge=1
  1470                           global __ptext407
  1471  0191                     __ptext407:
  1472                           psect	text407
  1473                           	file	"lcd.c"
  1474                           	line	116
  1475                           	global	__size_of_LCD_putchar
  1476  0008                     	__size_of_LCD_putchar	equ	__end_of_LCD_putchar-_LCD_putchar
  1477                           	
  1478  0191                     _LCD_putchar:	
  1479                           	opt	stack 5
  1480                           ; Regs used in _LCD_putchar: [wreg+status,2+status,0+pclath+cstack]
  1481                           ;LCD_putchar@c_data stored from wreg
  1482                           	line	118
  1483  0191  00F3               	movwf	(LCD_putchar@c_data)
  1484                           	
  1485  0192                     l1449:	
  1486                           ;lcd.c: 118: LCD_senddata(c_data);
  1487  0192  0873               	movf	(LCD_putchar@c_data),w
  1488  0193  120A  118A  21AC   	fcall	_LCD_senddata
              120A  118A         
  1489                           	line	119
  1490                           	
  1491  0198                     l84:	
  1492  0198  0008               	return
  1493                           	opt stack 0
  1494                           GLOBAL	__end_of_LCD_putchar
  1495  0199                     	__end_of_LCD_putchar:
  1496                           	signat	_LCD_putchar,4216
  1497                           	global	_LCD_senddata
  1498                           
  1499 ;; *************** function _LCD_senddata *****************
  1500 ;; Defined at:
  1501 ;;		line 87 in file "lcd.c"
  1502 ;; Parameters:    Size  Location     Type
  1503 ;;  var             1    wreg     unsigned char 
  1504 ;; Auto vars:     Size  Location     Type
  1505 ;;  var             1    2[COMMON] unsigned char 
  1506 ;; Return value:  Size  Location     Type
  1507 ;;		None               void
  1508 ;; Registers used:
  1509 ;;		wreg, status,2, status,0, pclath, cstack
  1510 ;; Tracked objects:
  1511 ;;		On entry : 0/0
  1512 ;;		On exit  : 0/0
  1513 ;;		Unchanged: 0/0
  1514 ;; Data sizes:     COMMON   BANK0   BANK1   BANK3   BANK2
  1515 ;;      Params:         0       0       0       0       0
  1516 ;;      Locals:         1       0       0       0       0
  1517 ;;      Temps:          0       0       0       0       0
  1518 ;;      Totals:         1       0       0       0       0
  1519 ;;Total ram usage:        1 bytes
  1520 ;; Hardware stack levels used:    1
  1521 ;; Hardware stack levels required when called:    1
  1522 ;; This function calls:
  1523 ;;		_LCD_4bitsend
  1524 ;; This function is called by:
  1525 ;;		_LCD_putstr
  1526 ;;		_LCD_putchar
  1527 ;; This function uses a non-reentrant model
  1528 ;;
  1529                           psect	text408,local,class=CODE,delta=2,merge=1
  1530                           global __ptext408
  1531  01AC                     __ptext408:
  1532                           psect	text408
  1533                           	file	"lcd.c"
  1534                           	line	87
  1535                           	global	__size_of_LCD_senddata
  1536  000B                     	__size_of_LCD_senddata	equ	__end_of_LCD_senddata-_LCD_senddata
  1537                           	
  1538  01AC                     _LCD_senddata:	
  1539                           	opt	stack 5
  1540                           ; Regs used in _LCD_senddata: [wreg+status,2+status,0+pclath+cstack]
  1541                           ;LCD_senddata@var stored from wreg
  1542  01AC  00F2               	movwf	(LCD_senddata@var)
  1543                           	line	88
  1544                           	
  1545  01AD                     l1323:	
  1546                           ;lcd.c: 88: RB2 = 1;
  1547  01AD  1283               	bcf	status, 5	;RP0=0, select bank0
  1548  01AE  1303               	bcf	status, 6	;RP1=0, select bank0
  1549  01AF  1506               	bsf	(50/8),(50)&7	;volatile
  1550                           	line	89
  1551                           	
  1552  01B0                     l1325:	
  1553                           ;lcd.c: 89: LCD_4bitsend(var);
  1554  01B0  0872               	movf	(LCD_senddata@var),w
  1555  01B1  120A  118A  23F8   	fcall	_LCD_4bitsend
              120A  118A         
  1556                           	line	90
  1557                           	
  1558  01B6                     l75:	
  1559  01B6  0008               	return
  1560                           	opt stack 0
  1561                           GLOBAL	__end_of_LCD_senddata
  1562  01B7                     	__end_of_LCD_senddata:
  1563                           	signat	_LCD_senddata,4216
  1564                           	global	_LCD_goto
  1565                           
  1566 ;; *************** function _LCD_goto *****************
  1567 ;; Defined at:
  1568 ;;		line 129 in file "lcd.c"
  1569 ;; Parameters:    Size  Location     Type
  1570 ;;  row             1    wreg     unsigned char 
  1571 ;;  column          1    3[COMMON] unsigned char 
  1572 ;; Auto vars:     Size  Location     Type
  1573 ;;  row             1    4[COMMON] unsigned char 
  1574 ;; Return value:  Size  Location     Type
  1575 ;;		None               void
  1576 ;; Registers used:
  1577 ;;		wreg, status,2, status,0, pclath, cstack
  1578 ;; Tracked objects:
  1579 ;;		On entry : 0/0
  1580 ;;		On exit  : 0/0
  1581 ;;		Unchanged: 0/0
  1582 ;; Data sizes:     COMMON   BANK0   BANK1   BANK3   BANK2
  1583 ;;      Params:         1       0       0       0       0
  1584 ;;      Locals:         1       0       0       0       0
  1585 ;;      Temps:          0       0       0       0       0
  1586 ;;      Totals:         2       0       0       0       0
  1587 ;;Total ram usage:        2 bytes
  1588 ;; Hardware stack levels used:    1
  1589 ;; Hardware stack levels required when called:    2
  1590 ;; This function calls:
  1591 ;;		_LCD_command
  1592 ;; This function is called by:
  1593 ;;		_main
  1594 ;; This function uses a non-reentrant model
  1595 ;;
  1596                           psect	text409,local,class=CODE,delta=2,merge=1
  1597                           global __ptext409
  1598  01C9                     __ptext409:
  1599                           psect	text409
  1600                           	file	"lcd.c"
  1601                           	line	129
  1602                           	global	__size_of_LCD_goto
  1603  0017                     	__size_of_LCD_goto	equ	__end_of_LCD_goto-_LCD_goto
  1604                           	
  1605  01C9                     _LCD_goto:	
  1606                           	opt	stack 5
  1607                           ; Regs used in _LCD_goto: [wreg+status,2+status,0+pclath+cstack]
  1608                           ;LCD_goto@row stored from wreg
  1609  01C9  00F4               	movwf	(LCD_goto@row)
  1610                           	line	130
  1611                           	
  1612  01CA                     l1453:	
  1613                           ;lcd.c: 130: if(row == 0)
  1614  01CA  08F4               	movf	(LCD_goto@row),f
  1615  01CB  1D03               	skipz
  1616  01CC  29CE               	goto	u1701
  1617  01CD  29CF               	goto	u1700
  1618  01CE                     u1701:
  1619  01CE  29D7               	goto	l1457
  1620  01CF                     u1700:
  1621                           	line	131
  1622                           	
  1623  01CF                     l1455:	
  1624                           ;lcd.c: 131: LCD_command(0x80 | column);
  1625  01CF  0873               	movf	(LCD_goto@column),w
  1626  01D0  3880               	iorlw	080h
  1627  01D1  120A  118A  21A1   	fcall	_LCD_command
              120A  118A         
  1628  01D6  29DF               	goto	l92
  1629                           	line	132
  1630                           	
  1631  01D7                     l90:	
  1632                           	line	133
  1633                           	
  1634  01D7                     l1457:	
  1635                           ;lcd.c: 132: else
  1636                           ;lcd.c: 133: LCD_command(0x80 | 0x40 | column);
  1637  01D7  0873               	movf	(LCD_goto@column),w
  1638  01D8  38C0               	iorlw	0C0h
  1639  01D9  120A  118A  21A1   	fcall	_LCD_command
              120A  118A         
  1640  01DE  29DF               	goto	l92
  1641                           	
  1642  01DF                     l91:	
  1643                           	line	134
  1644                           	
  1645  01DF                     l92:	
  1646  01DF  0008               	return
  1647                           	opt stack 0
  1648                           GLOBAL	__end_of_LCD_goto
  1649  01E0                     	__end_of_LCD_goto:
  1650                           	signat	_LCD_goto,8312
  1651                           	global	_initialize
  1652                           
  1653 ;; *************** function _initialize *****************
  1654 ;; Defined at:
  1655 ;;		line 71 in file "Main.c"
  1656 ;; Parameters:    Size  Location     Type
  1657 ;;		None
  1658 ;; Auto vars:     Size  Location     Type
  1659 ;;		None
  1660 ;; Return value:  Size  Location     Type
  1661 ;;		None               void
  1662 ;; Registers used:
  1663 ;;		wreg, status,2, status,0, pclath, cstack
  1664 ;; Tracked objects:
  1665 ;;		On entry : 0/0
  1666 ;;		On exit  : 0/0
  1667 ;;		Unchanged: 0/0
  1668 ;; Data sizes:     COMMON   BANK0   BANK1   BANK3   BANK2
  1669 ;;      Params:         0       0       0       0       0
  1670 ;;      Locals:         0       0       0       0       0
  1671 ;;      Temps:          2       0       0       0       0
  1672 ;;      Totals:         2       0       0       0       0
  1673 ;;Total ram usage:        2 bytes
  1674 ;; Hardware stack levels used:    1
  1675 ;; Hardware stack levels required when called:    3
  1676 ;; This function calls:
  1677 ;;		_adc_initialize
  1678 ;;		_LCD_initialize
  1679 ;;		_LCD_clear
  1680 ;; This function is called by:
  1681 ;;		_main
  1682 ;; This function uses a non-reentrant model
  1683 ;;
  1684                           psect	text410,local,class=CODE,delta=2,merge=1
  1685                           global __ptext410
  1686  01E0                     __ptext410:
  1687                           psect	text410
  1688                           	file	"Main.c"
  1689                           	line	71
  1690                           	global	__size_of_initialize
  1691  0018                     	__size_of_initialize	equ	__end_of_initialize-_initialize
  1692                           	
  1693  01E0                     _initialize:	
  1694                           	opt	stack 4
  1695                           ; Regs used in _initialize: [wreg+status,2+status,0+pclath+cstack]
  1696                           	line	72
  1697                           	
  1698  01E0                     l1459:	
  1699                           ;Main.c: 72: adc_initialize();
  1700  01E0  120A  118A  21B7   	fcall	_adc_initialize
              120A  118A         
  1701                           	line	73
  1702                           	
  1703  01E5                     l1461:	
  1704                           ;Main.c: 73: _delay((unsigned long)((10)*(2e6/4000.0)));
  1705                           	opt asmopt_off
  1706  01E5  3007               movlw	7
  1707  01E6  00F6               movwf	((??_initialize+0)+0+1),f
  1708  01E7  307D               	movlw	125
  1709  01E8  00F5               movwf	((??_initialize+0)+0),f
  1710  01E9                     u1777:
  1711  01E9  0BF5               	decfsz	((??_initialize+0)+0),f
  1712  01EA  29E9               	goto	u1777
  1713  01EB  0BF6               	decfsz	((??_initialize+0)+0+1),f
  1714  01EC  29E9               	goto	u1777
  1715                           opt asmopt_on
  1716                           
  1717                           	line	74
  1718                           ;Main.c: 74: LCD_initialize();
  1719  01ED  120A  118A  2371   	fcall	_LCD_initialize
              120A  118A         
  1720                           	line	75
  1721                           ;Main.c: 75: LCD_clear();
  1722  01F2  120A  118A  218A   	fcall	_LCD_clear
              120A  118A         
  1723                           	line	76
  1724                           	
  1725  01F7                     l145:	
  1726  01F7  0008               	return
  1727                           	opt stack 0
  1728                           GLOBAL	__end_of_initialize
  1729  01F8                     	__end_of_initialize:
  1730                           	signat	_initialize,88
  1731                           	global	_adc_initialize
  1732                           
  1733 ;; *************** function _adc_initialize *****************
  1734 ;; Defined at:
  1735 ;;		line 19 in file "adc.c"
  1736 ;; Parameters:    Size  Location     Type
  1737 ;;		None
  1738 ;; Auto vars:     Size  Location     Type
  1739 ;;		None
  1740 ;; Return value:  Size  Location     Type
  1741 ;;		None               void
  1742 ;; Registers used:
  1743 ;;		None
  1744 ;; Tracked objects:
  1745 ;;		On entry : 0/0
  1746 ;;		On exit  : 0/0
  1747 ;;		Unchanged: 0/0
  1748 ;; Data sizes:     COMMON   BANK0   BANK1   BANK3   BANK2
  1749 ;;      Params:         0       0       0       0       0
  1750 ;;      Locals:         0       0       0       0       0
  1751 ;;      Temps:          0       0       0       0       0
  1752 ;;      Totals:         0       0       0       0       0
  1753 ;;Total ram usage:        0 bytes
  1754 ;; Hardware stack levels used:    1
  1755 ;; This function calls:
  1756 ;;		Nothing
  1757 ;; This function is called by:
  1758 ;;		_initialize
  1759 ;; This function uses a non-reentrant model
  1760 ;;
  1761                           psect	text411,local,class=CODE,delta=2,merge=1
  1762                           global __ptext411
  1763  01B7                     __ptext411:
  1764                           psect	text411
  1765                           	file	"adc.c"
  1766                           	line	19
  1767                           	global	__size_of_adc_initialize
  1768  0012                     	__size_of_adc_initialize	equ	__end_of_adc_initialize-_adc_initialize
  1769                           	
  1770  01B7                     _adc_initialize:	
  1771                           	opt	stack 6
  1772                           ; Regs used in _adc_initialize: []
  1773                           	line	21
  1774                           	
  1775  01B7                     l1119:	
  1776                           ;adc.c: 21: ADCS2 = 1;
  1777  01B7  1683               	bsf	status, 5	;RP0=1, select bank1
  1778  01B8  1303               	bcf	status, 6	;RP1=0, select bank1
  1779  01B9  171F               	bsf	(1278/8)^080h,(1278)&7	;volatile
  1780                           	line	22
  1781                           ;adc.c: 22: ADCS1 = 1;
  1782  01BA  1283               	bcf	status, 5	;RP0=0, select bank0
  1783  01BB  1303               	bcf	status, 6	;RP1=0, select bank0
  1784  01BC  179F               	bsf	(255/8),(255)&7	;volatile
  1785                           	line	23
  1786                           ;adc.c: 23: ADCS0 = 0;
  1787  01BD  131F               	bcf	(254/8),(254)&7	;volatile
  1788                           	line	26
  1789                           ;adc.c: 26: PCFG3 = 1;
  1790  01BE  1683               	bsf	status, 5	;RP0=1, select bank1
  1791  01BF  1303               	bcf	status, 6	;RP1=0, select bank1
  1792  01C0  159F               	bsf	(1275/8)^080h,(1275)&7	;volatile
  1793                           	line	27
  1794                           ;adc.c: 27: PCFG2 = 1;
  1795  01C1  151F               	bsf	(1274/8)^080h,(1274)&7	;volatile
  1796                           	line	28
  1797                           ;adc.c: 28: PCFG1 = 1;
  1798  01C2  149F               	bsf	(1273/8)^080h,(1273)&7	;volatile
  1799                           	line	29
  1800                           ;adc.c: 29: PCFG0 = 0;
  1801  01C3  101F               	bcf	(1272/8)^080h,(1272)&7	;volatile
  1802                           	line	32
  1803                           ;adc.c: 32: ADFM = 1;
  1804  01C4  179F               	bsf	(1279/8)^080h,(1279)&7	;volatile
  1805                           	line	35
  1806                           ;adc.c: 35: ADON = 0;
  1807  01C5  1283               	bcf	status, 5	;RP0=0, select bank0
  1808  01C6  1303               	bcf	status, 6	;RP1=0, select bank0
  1809  01C7  101F               	bcf	(248/8),(248)&7	;volatile
  1810                           	line	36
  1811                           	
  1812  01C8                     l35:	
  1813  01C8  0008               	return
  1814                           	opt stack 0
  1815                           GLOBAL	__end_of_adc_initialize
  1816  01C9                     	__end_of_adc_initialize:
  1817                           	signat	_adc_initialize,88
  1818                           	global	_LCD_initialize
  1819                           
  1820 ;; *************** function _LCD_initialize *****************
  1821 ;; Defined at:
  1822 ;;		line 35 in file "lcd.c"
  1823 ;; Parameters:    Size  Location     Type
  1824 ;;		None
  1825 ;; Auto vars:     Size  Location     Type
  1826 ;;		None
  1827 ;; Return value:  Size  Location     Type
  1828 ;;		None               void
  1829 ;; Registers used:
  1830 ;;		wreg, status,2, status,0, pclath, cstack
  1831 ;; Tracked objects:
  1832 ;;		On entry : 0/0
  1833 ;;		On exit  : 0/0
  1834 ;;		Unchanged: 0/0
  1835 ;; Data sizes:     COMMON   BANK0   BANK1   BANK3   BANK2
  1836 ;;      Params:         0       0       0       0       0
  1837 ;;      Locals:         0       0       0       0       0
  1838 ;;      Temps:          2       0       0       0       0
  1839 ;;      Totals:         2       0       0       0       0
  1840 ;;Total ram usage:        2 bytes
  1841 ;; Hardware stack levels used:    1
  1842 ;; Hardware stack levels required when called:    2
  1843 ;; This function calls:
  1844 ;;		_LCD_command
  1845 ;; This function is called by:
  1846 ;;		_initialize
  1847 ;; This function uses a non-reentrant model
  1848 ;;
  1849                           psect	text412,local,class=CODE,delta=2,merge=1
  1850                           global __ptext412
  1851  0371                     __ptext412:
  1852                           psect	text412
  1853                           	file	"lcd.c"
  1854                           	line	35
  1855                           	global	__size_of_LCD_initialize
  1856  0087                     	__size_of_LCD_initialize	equ	__end_of_LCD_initialize-_LCD_initialize
  1857                           	
  1858  0371                     _LCD_initialize:	
  1859                           	opt	stack 4
  1860                           ; Regs used in _LCD_initialize: [wreg+status,2+status,0+pclath+cstack]
  1861                           	line	36
  1862                           	
  1863  0371                     l1377:	
  1864                           ;lcd.c: 36: _delay((unsigned long)((30)*(2e6/4000.0)));
  1865                           	opt asmopt_off
  1866  0371  3014               movlw	20
  1867  0372  00F4               movwf	((??_LCD_initialize+0)+0+1),f
  1868  0373  3079               	movlw	121
  1869  0374  00F3               movwf	((??_LCD_initialize+0)+0),f
  1870  0375                     u1787:
  1871  0375  0BF3               	decfsz	((??_LCD_initialize+0)+0),f
  1872  0376  2B75               	goto	u1787
  1873  0377  0BF4               	decfsz	((??_LCD_initialize+0)+0+1),f
  1874  0378  2B75               	goto	u1787
  1875  0379  2B7A               	nop2
  1876                           opt asmopt_on
  1877                           
  1878                           	line	38
  1879                           	
  1880  037A                     l1379:	
  1881                           ;lcd.c: 38: RB3 = 1;
  1882  037A  1283               	bcf	status, 5	;RP0=0, select bank0
  1883  037B  1303               	bcf	status, 6	;RP1=0, select bank0
  1884  037C  1586               	bsf	(51/8),(51)&7	;volatile
  1885                           	line	39
  1886                           ;lcd.c: 39: _delay((unsigned long)((20)*(2e6/4000.0)));
  1887                           	opt asmopt_off
  1888  037D  300D               movlw	13
  1889  037E  00F4               movwf	((??_LCD_initialize+0)+0+1),f
  1890  037F  30FB               	movlw	251
  1891  0380  00F3               movwf	((??_LCD_initialize+0)+0),f
  1892  0381                     u1797:
  1893  0381  0BF3               	decfsz	((??_LCD_initialize+0)+0),f
  1894  0382  2B81               	goto	u1797
  1895  0383  0BF4               	decfsz	((??_LCD_initialize+0)+0+1),f
  1896  0384  2B81               	goto	u1797
  1897  0385  2B86               	nop2
  1898                           opt asmopt_on
  1899                           
  1900                           	line	40
  1901                           	
  1902  0386                     l1381:	
  1903                           ;lcd.c: 40: RB3 = 0;
  1904  0386  1283               	bcf	status, 5	;RP0=0, select bank0
  1905  0387  1303               	bcf	status, 6	;RP1=0, select bank0
  1906  0388  1186               	bcf	(51/8),(51)&7	;volatile
  1907                           	line	41
  1908                           	
  1909  0389                     l1383:	
  1910                           ;lcd.c: 41: RB2 = 0;
  1911  0389  1106               	bcf	(50/8),(50)&7	;volatile
  1912                           	line	42
  1913                           	
  1914  038A                     l1385:	
  1915                           ;lcd.c: 42: RB7 = 0;
  1916  038A  1386               	bcf	(55/8),(55)&7	;volatile
  1917                           	line	43
  1918                           	
  1919  038B                     l1387:	
  1920                           ;lcd.c: 43: RB6 = 0;
  1921  038B  1306               	bcf	(54/8),(54)&7	;volatile
  1922                           	line	44
  1923                           	
  1924  038C                     l1389:	
  1925                           ;lcd.c: 44: RB5 = 1;
  1926  038C  1686               	bsf	(53/8),(53)&7	;volatile
  1927                           	line	45
  1928                           	
  1929  038D                     l1391:	
  1930                           ;lcd.c: 45: RB4 = 1;
  1931  038D  1606               	bsf	(52/8),(52)&7	;volatile
  1932                           	line	46
  1933                           	
  1934  038E                     l1393:	
  1935                           ;lcd.c: 46: RB3 = 1;
  1936  038E  1586               	bsf	(51/8),(51)&7	;volatile
  1937                           	line	47
  1938                           ;lcd.c: 47: _delay((unsigned long)((2)*(2e6/4000.0)));
  1939                           	opt asmopt_off
  1940  038F  30F9               movlw	249
  1941  0390  00F3               movwf	(??_LCD_initialize+0)+0,f
  1942  0391                     u1807:
  1943  0391  0000               	nop
  1944  0392  0BF3               decfsz	(??_LCD_initialize+0)+0,f
  1945  0393  2B91               	goto	u1807
  1946  0394  2B95               	nop2	;nop
  1947  0395  0000               	nop
  1948                           opt asmopt_on
  1949                           
  1950                           	line	48
  1951                           	
  1952  0396                     l1395:	
  1953                           ;lcd.c: 48: RB3 = 0;
  1954  0396  1283               	bcf	status, 5	;RP0=0, select bank0
  1955  0397  1303               	bcf	status, 6	;RP1=0, select bank0
  1956  0398  1186               	bcf	(51/8),(51)&7	;volatile
  1957                           	line	51
  1958                           	
  1959  0399                     l1397:	
  1960                           ;lcd.c: 51: RB7 = 0;
  1961  0399  1386               	bcf	(55/8),(55)&7	;volatile
  1962                           	line	52
  1963                           	
  1964  039A                     l1399:	
  1965                           ;lcd.c: 52: RB6 = 0;
  1966  039A  1306               	bcf	(54/8),(54)&7	;volatile
  1967                           	line	53
  1968                           	
  1969  039B                     l1401:	
  1970                           ;lcd.c: 53: RB5 = 1;
  1971  039B  1686               	bsf	(53/8),(53)&7	;volatile
  1972                           	line	54
  1973                           	
  1974  039C                     l1403:	
  1975                           ;lcd.c: 54: RB4 = 1;
  1976  039C  1606               	bsf	(52/8),(52)&7	;volatile
  1977                           	line	55
  1978                           	
  1979  039D                     l1405:	
  1980                           ;lcd.c: 55: RB3 = 1;
  1981  039D  1586               	bsf	(51/8),(51)&7	;volatile
  1982                           	line	56
  1983                           ;lcd.c: 56: _delay((unsigned long)((2)*(2e6/4000.0)));
  1984                           	opt asmopt_off
  1985  039E  30F9               movlw	249
  1986  039F  00F3               movwf	(??_LCD_initialize+0)+0,f
  1987  03A0                     u1817:
  1988  03A0  0000               	nop
  1989  03A1  0BF3               decfsz	(??_LCD_initialize+0)+0,f
  1990  03A2  2BA0               	goto	u1817
  1991  03A3  2BA4               	nop2	;nop
  1992  03A4  0000               	nop
  1993                           opt asmopt_on
  1994                           
  1995                           	line	57
  1996                           	
  1997  03A5                     l1407:	
  1998                           ;lcd.c: 57: RB3 = 0;
  1999  03A5  1283               	bcf	status, 5	;RP0=0, select bank0
  2000  03A6  1303               	bcf	status, 6	;RP1=0, select bank0
  2001  03A7  1186               	bcf	(51/8),(51)&7	;volatile
  2002                           	line	58
  2003                           ;lcd.c: 58: _delay((unsigned long)((2)*(2e6/4000.0)));
  2004                           	opt asmopt_off
  2005  03A8  30F9               movlw	249
  2006  03A9  00F3               movwf	(??_LCD_initialize+0)+0,f
  2007  03AA                     u1827:
  2008  03AA  0000               	nop
  2009  03AB  0BF3               decfsz	(??_LCD_initialize+0)+0,f
  2010  03AC  2BAA               	goto	u1827
  2011  03AD  2BAE               	nop2	;nop
  2012  03AE  0000               	nop
  2013                           opt asmopt_on
  2014                           
  2015                           	line	60
  2016                           	
  2017  03AF                     l1409:	
  2018                           ;lcd.c: 60: RB7 = 0;
  2019  03AF  1283               	bcf	status, 5	;RP0=0, select bank0
  2020  03B0  1303               	bcf	status, 6	;RP1=0, select bank0
  2021  03B1  1386               	bcf	(55/8),(55)&7	;volatile
  2022                           	line	61
  2023                           	
  2024  03B2                     l1411:	
  2025                           ;lcd.c: 61: RB6 = 0;
  2026  03B2  1306               	bcf	(54/8),(54)&7	;volatile
  2027                           	line	62
  2028                           	
  2029  03B3                     l1413:	
  2030                           ;lcd.c: 62: RB5 = 1;
  2031  03B3  1686               	bsf	(53/8),(53)&7	;volatile
  2032                           	line	63
  2033                           	
  2034  03B4                     l1415:	
  2035                           ;lcd.c: 63: RB4 = 1;
  2036  03B4  1606               	bsf	(52/8),(52)&7	;volatile
  2037                           	line	64
  2038                           	
  2039  03B5                     l1417:	
  2040                           ;lcd.c: 64: RB3 = 1;
  2041  03B5  1586               	bsf	(51/8),(51)&7	;volatile
  2042                           	line	65
  2043                           ;lcd.c: 65: _delay((unsigned long)((2)*(2e6/4000.0)));
  2044                           	opt asmopt_off
  2045  03B6  30F9               movlw	249
  2046  03B7  00F3               movwf	(??_LCD_initialize+0)+0,f
  2047  03B8                     u1837:
  2048  03B8  0000               	nop
  2049  03B9  0BF3               decfsz	(??_LCD_initialize+0)+0,f
  2050  03BA  2BB8               	goto	u1837
  2051  03BB  2BBC               	nop2	;nop
  2052  03BC  0000               	nop
  2053                           opt asmopt_on
  2054                           
  2055                           	line	66
  2056                           	
  2057  03BD                     l1419:	
  2058                           ;lcd.c: 66: RB3 = 0;
  2059  03BD  1283               	bcf	status, 5	;RP0=0, select bank0
  2060  03BE  1303               	bcf	status, 6	;RP1=0, select bank0
  2061  03BF  1186               	bcf	(51/8),(51)&7	;volatile
  2062                           	line	67
  2063                           ;lcd.c: 67: _delay((unsigned long)((2)*(2e6/4000.0)));
  2064                           	opt asmopt_off
  2065  03C0  30F9               movlw	249
  2066  03C1  00F3               movwf	(??_LCD_initialize+0)+0,f
  2067  03C2                     u1847:
  2068  03C2  0000               	nop
  2069  03C3  0BF3               decfsz	(??_LCD_initialize+0)+0,f
  2070  03C4  2BC2               	goto	u1847
  2071  03C5  2BC6               	nop2	;nop
  2072  03C6  0000               	nop
  2073                           opt asmopt_on
  2074                           
  2075                           	line	69
  2076                           	
  2077  03C7                     l1421:	
  2078                           ;lcd.c: 69: RB7 = 0;
  2079  03C7  1283               	bcf	status, 5	;RP0=0, select bank0
  2080  03C8  1303               	bcf	status, 6	;RP1=0, select bank0
  2081  03C9  1386               	bcf	(55/8),(55)&7	;volatile
  2082                           	line	70
  2083                           	
  2084  03CA                     l1423:	
  2085                           ;lcd.c: 70: RB6 = 0;
  2086  03CA  1306               	bcf	(54/8),(54)&7	;volatile
  2087                           	line	71
  2088                           	
  2089  03CB                     l1425:	
  2090                           ;lcd.c: 71: RB5 = 1;
  2091  03CB  1686               	bsf	(53/8),(53)&7	;volatile
  2092                           	line	72
  2093                           	
  2094  03CC                     l1427:	
  2095                           ;lcd.c: 72: RB4 = 0;
  2096  03CC  1206               	bcf	(52/8),(52)&7	;volatile
  2097                           	line	73
  2098                           	
  2099  03CD                     l1429:	
  2100                           ;lcd.c: 73: RB3 = 1;
  2101  03CD  1586               	bsf	(51/8),(51)&7	;volatile
  2102                           	line	74
  2103                           ;lcd.c: 74: _delay((unsigned long)((2)*(2e6/4000.0)));
  2104                           	opt asmopt_off
  2105  03CE  30F9               movlw	249
  2106  03CF  00F3               movwf	(??_LCD_initialize+0)+0,f
  2107  03D0                     u1857:
  2108  03D0  0000               	nop
  2109  03D1  0BF3               decfsz	(??_LCD_initialize+0)+0,f
  2110  03D2  2BD0               	goto	u1857
  2111  03D3  2BD4               	nop2	;nop
  2112  03D4  0000               	nop
  2113                           opt asmopt_on
  2114                           
  2115                           	line	75
  2116                           	
  2117  03D5                     l1431:	
  2118                           ;lcd.c: 75: RB3 = 0;
  2119  03D5  1283               	bcf	status, 5	;RP0=0, select bank0
  2120  03D6  1303               	bcf	status, 6	;RP1=0, select bank0
  2121  03D7  1186               	bcf	(51/8),(51)&7	;volatile
  2122                           	line	76
  2123                           ;lcd.c: 76: _delay((unsigned long)((2)*(2e6/4000.0)));
  2124                           	opt asmopt_off
  2125  03D8  30F9               movlw	249
  2126  03D9  00F3               movwf	(??_LCD_initialize+0)+0,f
  2127  03DA                     u1867:
  2128  03DA  0000               	nop
  2129  03DB  0BF3               decfsz	(??_LCD_initialize+0)+0,f
  2130  03DC  2BDA               	goto	u1867
  2131  03DD  2BDE               	nop2	;nop
  2132  03DE  0000               	nop
  2133                           opt asmopt_on
  2134                           
  2135                           	line	79
  2136                           	
  2137  03DF                     l1433:	
  2138                           ;lcd.c: 79: LCD_command (0x28);
  2139  03DF  3028               	movlw	(028h)
  2140  03E0  120A  118A  21A1   	fcall	_LCD_command
              120A  118A         
  2141                           	line	80
  2142                           	
  2143  03E5                     l1435:	
  2144                           ;lcd.c: 80: LCD_command (0x0C);
  2145  03E5  300C               	movlw	(0Ch)
  2146  03E6  120A  118A  21A1   	fcall	_LCD_command
              120A  118A         
  2147                           	line	81
  2148                           	
  2149  03EB                     l1437:	
  2150                           ;lcd.c: 81: LCD_command (0x01);
  2151  03EB  3001               	movlw	(01h)
  2152  03EC  120A  118A  21A1   	fcall	_LCD_command
              120A  118A         
  2153                           	line	82
  2154                           	
  2155  03F1                     l1439:	
  2156                           ;lcd.c: 82: LCD_command (0x06);
  2157  03F1  3006               	movlw	(06h)
  2158  03F2  120A  118A  21A1   	fcall	_LCD_command
              120A  118A         
  2159                           	line	83
  2160                           	
  2161  03F7                     l72:	
  2162  03F7  0008               	return
  2163                           	opt stack 0
  2164                           GLOBAL	__end_of_LCD_initialize
  2165  03F8                     	__end_of_LCD_initialize:
  2166                           	signat	_LCD_initialize,88
  2167                           	global	_LCD_clear
  2168                           
  2169 ;; *************** function _LCD_clear *****************
  2170 ;; Defined at:
  2171 ;;		line 124 in file "lcd.c"
  2172 ;; Parameters:    Size  Location     Type
  2173 ;;		None
  2174 ;; Auto vars:     Size  Location     Type
  2175 ;;		None
  2176 ;; Return value:  Size  Location     Type
  2177 ;;		None               void
  2178 ;; Registers used:
  2179 ;;		wreg, status,2, status,0, pclath, cstack
  2180 ;; Tracked objects:
  2181 ;;		On entry : 0/0
  2182 ;;		On exit  : 0/0
  2183 ;;		Unchanged: 0/0
  2184 ;; Data sizes:     COMMON   BANK0   BANK1   BANK3   BANK2
  2185 ;;      Params:         0       0       0       0       0
  2186 ;;      Locals:         0       0       0       0       0
  2187 ;;      Temps:          0       0       0       0       0
  2188 ;;      Totals:         0       0       0       0       0
  2189 ;;Total ram usage:        0 bytes
  2190 ;; Hardware stack levels used:    1
  2191 ;; Hardware stack levels required when called:    2
  2192 ;; This function calls:
  2193 ;;		_LCD_command
  2194 ;; This function is called by:
  2195 ;;		_initialize
  2196 ;; This function uses a non-reentrant model
  2197 ;;
  2198                           psect	text413,local,class=CODE,delta=2,merge=1
  2199                           global __ptext413
  2200  018A                     __ptext413:
  2201                           psect	text413
  2202                           	file	"lcd.c"
  2203                           	line	124
  2204                           	global	__size_of_LCD_clear
  2205  0007                     	__size_of_LCD_clear	equ	__end_of_LCD_clear-_LCD_clear
  2206                           	
  2207  018A                     _LCD_clear:	
  2208                           	opt	stack 4
  2209                           ; Regs used in _LCD_clear: [wreg+status,2+status,0+pclath+cstack]
  2210                           	line	125
  2211                           	
  2212  018A                     l1451:	
  2213                           ;lcd.c: 125: LCD_command(0b00000001);
  2214  018A  3001               	movlw	(01h)
  2215  018B  120A  118A  21A1   	fcall	_LCD_command
              120A  118A         
  2216                           	line	126
  2217                           	
  2218  0190                     l87:	
  2219  0190  0008               	return
  2220                           	opt stack 0
  2221                           GLOBAL	__end_of_LCD_clear
  2222  0191                     	__end_of_LCD_clear:
  2223                           	signat	_LCD_clear,88
  2224                           	global	_LCD_command
  2225                           
  2226 ;; *************** function _LCD_command *****************
  2227 ;; Defined at:
  2228 ;;		line 7 in file "lcd.c"
  2229 ;; Parameters:    Size  Location     Type
  2230 ;;  var             1    wreg     unsigned char 
  2231 ;; Auto vars:     Size  Location     Type
  2232 ;;  var             1    2[COMMON] unsigned char 
  2233 ;; Return value:  Size  Location     Type
  2234 ;;		None               void
  2235 ;; Registers used:
  2236 ;;		wreg, status,2, status,0, pclath, cstack
  2237 ;; Tracked objects:
  2238 ;;		On entry : 0/0
  2239 ;;		On exit  : 0/0
  2240 ;;		Unchanged: 0/0
  2241 ;; Data sizes:     COMMON   BANK0   BANK1   BANK3   BANK2
  2242 ;;      Params:         0       0       0       0       0
  2243 ;;      Locals:         1       0       0       0       0
  2244 ;;      Temps:          0       0       0       0       0
  2245 ;;      Totals:         1       0       0       0       0
  2246 ;;Total ram usage:        1 bytes
  2247 ;; Hardware stack levels used:    1
  2248 ;; Hardware stack levels required when called:    1
  2249 ;; This function calls:
  2250 ;;		_LCD_4bitsend
  2251 ;; This function is called by:
  2252 ;;		_LCD_initialize
  2253 ;;		_LCD_clear
  2254 ;;		_LCD_goto
  2255 ;; This function uses a non-reentrant model
  2256 ;;
  2257                           psect	text414,local,class=CODE,delta=2,merge=1
  2258                           global __ptext414
  2259  01A1                     __ptext414:
  2260                           psect	text414
  2261                           	file	"lcd.c"
  2262                           	line	7
  2263                           	global	__size_of_LCD_command
  2264  000B                     	__size_of_LCD_command	equ	__end_of_LCD_command-_LCD_command
  2265                           	
  2266  01A1                     _LCD_command:	
  2267                           	opt	stack 5
  2268                           ; Regs used in _LCD_command: [wreg+status,2+status,0+pclath+cstack]
  2269                           ;LCD_command@var stored from wreg
  2270  01A1  00F2               	movwf	(LCD_command@var)
  2271                           	line	8
  2272                           	
  2273  01A2                     l1319:	
  2274                           ;lcd.c: 8: RB2 = 0;
  2275  01A2  1283               	bcf	status, 5	;RP0=0, select bank0
  2276  01A3  1303               	bcf	status, 6	;RP1=0, select bank0
  2277  01A4  1106               	bcf	(50/8),(50)&7	;volatile
  2278                           	line	9
  2279                           	
  2280  01A5                     l1321:	
  2281                           ;lcd.c: 9: LCD_4bitsend(var);
  2282  01A5  0872               	movf	(LCD_command@var),w
  2283  01A6  120A  118A  23F8   	fcall	_LCD_4bitsend
              120A  118A         
  2284                           	line	10
  2285                           	
  2286  01AB                     l66:	
  2287  01AB  0008               	return
  2288                           	opt stack 0
  2289                           GLOBAL	__end_of_LCD_command
  2290  01AC                     	__end_of_LCD_command:
  2291                           	signat	_LCD_command,4216
  2292                           	global	_LCD_4bitsend
  2293                           
  2294 ;; *************** function _LCD_4bitsend *****************
  2295 ;; Defined at:
  2296 ;;		line 13 in file "lcd.c"
  2297 ;; Parameters:    Size  Location     Type
  2298 ;;  data            1    wreg     unsigned char 
  2299 ;; Auto vars:     Size  Location     Type
  2300 ;;  data            1    1[COMMON] unsigned char 
  2301 ;; Return value:  Size  Location     Type
  2302 ;;		None               void
  2303 ;; Registers used:
  2304 ;;		wreg, status,2, status,0
  2305 ;; Tracked objects:
  2306 ;;		On entry : 0/0
  2307 ;;		On exit  : 0/0
  2308 ;;		Unchanged: 0/0
  2309 ;; Data sizes:     COMMON   BANK0   BANK1   BANK3   BANK2
  2310 ;;      Params:         0       0       0       0       0
  2311 ;;      Locals:         1       0       0       0       0
  2312 ;;      Temps:          1       0       0       0       0
  2313 ;;      Totals:         2       0       0       0       0
  2314 ;;Total ram usage:        2 bytes
  2315 ;; Hardware stack levels used:    1
  2316 ;; This function calls:
  2317 ;;		Nothing
  2318 ;; This function is called by:
  2319 ;;		_LCD_command
  2320 ;;		_LCD_senddata
  2321 ;; This function uses a non-reentrant model
  2322 ;;
  2323                           psect	text415,local,class=CODE,delta=2,merge=1
  2324                           global __ptext415
  2325  03F8                     __ptext415:
  2326                           psect	text415
  2327                           	file	"lcd.c"
  2328                           	line	13
  2329                           	global	__size_of_LCD_4bitsend
  2330  00A0                     	__size_of_LCD_4bitsend	equ	__end_of_LCD_4bitsend-_LCD_4bitsend
  2331                           	
  2332  03F8                     _LCD_4bitsend:	
  2333                           	opt	stack 5
  2334                           ; Regs used in _LCD_4bitsend: [wreg+status,2+status,0]
  2335                           ;LCD_4bitsend@data stored from wreg
  2336  03F8  00F1               	movwf	(LCD_4bitsend@data)
  2337                           	line	14
  2338                           	
  2339  03F9                     l1223:	
  2340                           ;lcd.c: 14: RB7 = 1 & (data >> 7);
  2341  03F9  0871               	movf	(LCD_4bitsend@data),w
  2342  03FA  00F0               	movwf	(??_LCD_4bitsend+0)+0
  2343  03FB  3007               	movlw	07h
  2344  03FC                     u1135:
  2345  03FC  1003               	clrc
  2346  03FD  0CF0               	rrf	(??_LCD_4bitsend+0)+0,f
  2347  03FE  3EFF               	addlw	-1
  2348  03FF  1D03               	skipz
  2349  0400  2BFC               	goto	u1135
  2350  0401  1870               	btfsc	0+(??_LCD_4bitsend+0)+0,0
  2351  0402  2C04               	goto	u1141
  2352  0403  2C08               	goto	u1140
  2353                           	
  2354  0404                     u1141:
  2355  0404  1283               	bcf	status, 5	;RP0=0, select bank0
  2356  0405  1303               	bcf	status, 6	;RP1=0, select bank0
  2357  0406  1786               	bsf	(55/8),(55)&7	;volatile
  2358  0407  2C0B               	goto	u1154
  2359  0408                     u1140:
  2360  0408  1283               	bcf	status, 5	;RP0=0, select bank0
  2361  0409  1303               	bcf	status, 6	;RP1=0, select bank0
  2362  040A  1386               	bcf	(55/8),(55)&7	;volatile
  2363  040B                     u1154:
  2364                           	line	15
  2365                           ;lcd.c: 15: RB6 = 1 & (data >> 6);
  2366  040B  0871               	movf	(LCD_4bitsend@data),w
  2367  040C  00F0               	movwf	(??_LCD_4bitsend+0)+0
  2368  040D  3006               	movlw	06h
  2369  040E                     u1165:
  2370  040E  1003               	clrc
  2371  040F  0CF0               	rrf	(??_LCD_4bitsend+0)+0,f
  2372  0410  3EFF               	addlw	-1
  2373  0411  1D03               	skipz
  2374  0412  2C0E               	goto	u1165
  2375  0413  1870               	btfsc	0+(??_LCD_4bitsend+0)+0,0
  2376  0414  2C16               	goto	u1171
  2377  0415  2C1A               	goto	u1170
  2378                           	
  2379  0416                     u1171:
  2380  0416  1283               	bcf	status, 5	;RP0=0, select bank0
  2381  0417  1303               	bcf	status, 6	;RP1=0, select bank0
  2382  0418  1706               	bsf	(54/8),(54)&7	;volatile
  2383  0419  2C1D               	goto	u1184
  2384  041A                     u1170:
  2385  041A  1283               	bcf	status, 5	;RP0=0, select bank0
  2386  041B  1303               	bcf	status, 6	;RP1=0, select bank0
  2387  041C  1306               	bcf	(54/8),(54)&7	;volatile
  2388  041D                     u1184:
  2389                           	line	16
  2390                           ;lcd.c: 16: RB5 = 1 & (data >> 5);
  2391  041D  0871               	movf	(LCD_4bitsend@data),w
  2392  041E  00F0               	movwf	(??_LCD_4bitsend+0)+0
  2393  041F  3005               	movlw	05h
  2394  0420                     u1195:
  2395  0420  1003               	clrc
  2396  0421  0CF0               	rrf	(??_LCD_4bitsend+0)+0,f
  2397  0422  3EFF               	addlw	-1
  2398  0423  1D03               	skipz
  2399  0424  2C20               	goto	u1195
  2400  0425  1870               	btfsc	0+(??_LCD_4bitsend+0)+0,0
  2401  0426  2C28               	goto	u1201
  2402  0427  2C2C               	goto	u1200
  2403                           	
  2404  0428                     u1201:
  2405  0428  1283               	bcf	status, 5	;RP0=0, select bank0
  2406  0429  1303               	bcf	status, 6	;RP1=0, select bank0
  2407  042A  1686               	bsf	(53/8),(53)&7	;volatile
  2408  042B  2C2F               	goto	u1214
  2409  042C                     u1200:
  2410  042C  1283               	bcf	status, 5	;RP0=0, select bank0
  2411  042D  1303               	bcf	status, 6	;RP1=0, select bank0
  2412  042E  1286               	bcf	(53/8),(53)&7	;volatile
  2413  042F                     u1214:
  2414                           	line	17
  2415                           ;lcd.c: 17: RB4 = 1 & (data >> 4);
  2416  042F  0871               	movf	(LCD_4bitsend@data),w
  2417  0430  00F0               	movwf	(??_LCD_4bitsend+0)+0
  2418  0431  3004               	movlw	04h
  2419  0432                     u1225:
  2420  0432  1003               	clrc
  2421  0433  0CF0               	rrf	(??_LCD_4bitsend+0)+0,f
  2422  0434  3EFF               	addlw	-1
  2423  0435  1D03               	skipz
  2424  0436  2C32               	goto	u1225
  2425  0437  1870               	btfsc	0+(??_LCD_4bitsend+0)+0,0
  2426  0438  2C3A               	goto	u1231
  2427  0439  2C3E               	goto	u1230
  2428                           	
  2429  043A                     u1231:
  2430  043A  1283               	bcf	status, 5	;RP0=0, select bank0
  2431  043B  1303               	bcf	status, 6	;RP1=0, select bank0
  2432  043C  1606               	bsf	(52/8),(52)&7	;volatile
  2433  043D  2C41               	goto	u1244
  2434  043E                     u1230:
  2435  043E  1283               	bcf	status, 5	;RP0=0, select bank0
  2436  043F  1303               	bcf	status, 6	;RP1=0, select bank0
  2437  0440  1206               	bcf	(52/8),(52)&7	;volatile
  2438  0441                     u1244:
  2439                           	line	18
  2440                           	
  2441  0441                     l1225:	
  2442                           ;lcd.c: 18: RB3 = 1;
  2443  0441  1586               	bsf	(51/8),(51)&7	;volatile
  2444                           	line	19
  2445                           	
  2446  0442                     l1227:	
  2447                           ;lcd.c: 19: _delay((unsigned long)((2)*(2e6/4000.0)));
  2448                           	opt asmopt_off
  2449  0442  30F9               movlw	249
  2450  0443  00F0               movwf	(??_LCD_4bitsend+0)+0,f
  2451  0444                     u1877:
  2452  0444  0000               	nop
  2453  0445  0BF0               decfsz	(??_LCD_4bitsend+0)+0,f
  2454  0446  2C44               	goto	u1877
  2455  0447  2C48               	nop2	;nop
  2456  0448  0000               	nop
  2457                           opt asmopt_on
  2458                           
  2459                           	line	20
  2460                           	
  2461  0449                     l1229:	
  2462                           ;lcd.c: 20: RB3 = 0;
  2463  0449  1283               	bcf	status, 5	;RP0=0, select bank0
  2464  044A  1303               	bcf	status, 6	;RP1=0, select bank0
  2465  044B  1186               	bcf	(51/8),(51)&7	;volatile
  2466                           	line	23
  2467                           	
  2468  044C                     l1231:	
  2469                           ;lcd.c: 23: RB7 = 1 & (data >> 3);
  2470  044C  0871               	movf	(LCD_4bitsend@data),w
  2471  044D  00F0               	movwf	(??_LCD_4bitsend+0)+0
  2472  044E  3003               	movlw	03h
  2473  044F                     u1255:
  2474  044F  1003               	clrc
  2475  0450  0CF0               	rrf	(??_LCD_4bitsend+0)+0,f
  2476  0451  3EFF               	addlw	-1
  2477  0452  1D03               	skipz
  2478  0453  2C4F               	goto	u1255
  2479  0454  1870               	btfsc	0+(??_LCD_4bitsend+0)+0,0
  2480  0455  2C57               	goto	u1261
  2481  0456  2C5B               	goto	u1260
  2482                           	
  2483  0457                     u1261:
  2484  0457  1283               	bcf	status, 5	;RP0=0, select bank0
  2485  0458  1303               	bcf	status, 6	;RP1=0, select bank0
  2486  0459  1786               	bsf	(55/8),(55)&7	;volatile
  2487  045A  2C5E               	goto	u1274
  2488  045B                     u1260:
  2489  045B  1283               	bcf	status, 5	;RP0=0, select bank0
  2490  045C  1303               	bcf	status, 6	;RP1=0, select bank0
  2491  045D  1386               	bcf	(55/8),(55)&7	;volatile
  2492  045E                     u1274:
  2493                           	line	24
  2494                           	
  2495  045E                     l1233:	
  2496                           ;lcd.c: 24: RB6 = 1 & (data >> 2);
  2497  045E  0871               	movf	(LCD_4bitsend@data),w
  2498  045F  00F0               	movwf	(??_LCD_4bitsend+0)+0
  2499  0460  3002               	movlw	02h
  2500  0461                     u1285:
  2501  0461  1003               	clrc
  2502  0462  0CF0               	rrf	(??_LCD_4bitsend+0)+0,f
  2503  0463  3EFF               	addlw	-1
  2504  0464  1D03               	skipz
  2505  0465  2C61               	goto	u1285
  2506  0466  1870               	btfsc	0+(??_LCD_4bitsend+0)+0,0
  2507  0467  2C69               	goto	u1291
  2508  0468  2C6D               	goto	u1290
  2509                           	
  2510  0469                     u1291:
  2511  0469  1283               	bcf	status, 5	;RP0=0, select bank0
  2512  046A  1303               	bcf	status, 6	;RP1=0, select bank0
  2513  046B  1706               	bsf	(54/8),(54)&7	;volatile
  2514  046C  2C70               	goto	u1304
  2515  046D                     u1290:
  2516  046D  1283               	bcf	status, 5	;RP0=0, select bank0
  2517  046E  1303               	bcf	status, 6	;RP1=0, select bank0
  2518  046F  1306               	bcf	(54/8),(54)&7	;volatile
  2519  0470                     u1304:
  2520                           	line	25
  2521                           	
  2522  0470                     l1235:	
  2523                           ;lcd.c: 25: RB5 = 1 & (data >> 1);
  2524  0470  0871               	movf	(LCD_4bitsend@data),w
  2525  0471  00F0               	movwf	(??_LCD_4bitsend+0)+0
  2526  0472  3001               	movlw	01h
  2527  0473                     u1315:
  2528  0473  1003               	clrc
  2529  0474  0CF0               	rrf	(??_LCD_4bitsend+0)+0,f
  2530  0475  3EFF               	addlw	-1
  2531  0476  1D03               	skipz
  2532  0477  2C73               	goto	u1315
  2533  0478  1870               	btfsc	0+(??_LCD_4bitsend+0)+0,0
  2534  0479  2C7B               	goto	u1321
  2535  047A  2C7F               	goto	u1320
  2536                           	
  2537  047B                     u1321:
  2538  047B  1283               	bcf	status, 5	;RP0=0, select bank0
  2539  047C  1303               	bcf	status, 6	;RP1=0, select bank0
  2540  047D  1686               	bsf	(53/8),(53)&7	;volatile
  2541  047E  2C82               	goto	u1334
  2542  047F                     u1320:
  2543  047F  1283               	bcf	status, 5	;RP0=0, select bank0
  2544  0480  1303               	bcf	status, 6	;RP1=0, select bank0
  2545  0481  1286               	bcf	(53/8),(53)&7	;volatile
  2546  0482                     u1334:
  2547                           	line	26
  2548                           	
  2549  0482                     l1237:	
  2550                           ;lcd.c: 26: RB4 = 1 & data;
  2551  0482  1871               	btfsc	(LCD_4bitsend@data),0
  2552  0483  2C85               	goto	u1341
  2553  0484  2C89               	goto	u1340
  2554                           	
  2555  0485                     u1341:
  2556  0485  1283               	bcf	status, 5	;RP0=0, select bank0
  2557  0486  1303               	bcf	status, 6	;RP1=0, select bank0
  2558  0487  1606               	bsf	(52/8),(52)&7	;volatile
  2559  0488  2C8C               	goto	u1354
  2560  0489                     u1340:
  2561  0489  1283               	bcf	status, 5	;RP0=0, select bank0
  2562  048A  1303               	bcf	status, 6	;RP1=0, select bank0
  2563  048B  1206               	bcf	(52/8),(52)&7	;volatile
  2564  048C                     u1354:
  2565                           	line	27
  2566                           	
  2567  048C                     l1239:	
  2568                           ;lcd.c: 27: RB3 = 1;
  2569  048C  1586               	bsf	(51/8),(51)&7	;volatile
  2570                           	line	28
  2571                           ;lcd.c: 28: _delay((unsigned long)((2)*(2e6/4000.0)));
  2572                           	opt asmopt_off
  2573  048D  30F9               movlw	249
  2574  048E  00F0               movwf	(??_LCD_4bitsend+0)+0,f
  2575  048F                     u1887:
  2576  048F  0000               	nop
  2577  0490  0BF0               decfsz	(??_LCD_4bitsend+0)+0,f
  2578  0491  2C8F               	goto	u1887
  2579  0492  2C93               	nop2	;nop
  2580  0493  0000               	nop
  2581                           opt asmopt_on
  2582                           
  2583                           	line	29
  2584                           	
  2585  0494                     l1241:	
  2586                           ;lcd.c: 29: RB3 = 0;
  2587  0494  1283               	bcf	status, 5	;RP0=0, select bank0
  2588  0495  1303               	bcf	status, 6	;RP1=0, select bank0
  2589  0496  1186               	bcf	(51/8),(51)&7	;volatile
  2590                           	line	31
  2591                           	
  2592  0497                     l69:	
  2593  0497  0008               	return
  2594                           	opt stack 0
  2595                           GLOBAL	__end_of_LCD_4bitsend
  2596  0498                     	__end_of_LCD_4bitsend:
  2597                           	signat	_LCD_4bitsend,4216
  2598                           	global	_LED_Blinking
  2599                           
  2600 ;; *************** function _LED_Blinking *****************
  2601 ;; Defined at:
  2602 ;;		line 79 in file "Main.c"
  2603 ;; Parameters:    Size  Location     Type
  2604 ;;  k               2    0[COMMON] unsigned int 
  2605 ;; Auto vars:     Size  Location     Type
  2606 ;;		None
  2607 ;; Return value:  Size  Location     Type
  2608 ;;		None               void
  2609 ;; Registers used:
  2610 ;;		wreg
  2611 ;; Tracked objects:
  2612 ;;		On entry : 0/0
  2613 ;;		On exit  : 0/0
  2614 ;;		Unchanged: 0/0
  2615 ;; Data sizes:     COMMON   BANK0   BANK1   BANK3   BANK2
  2616 ;;      Params:         2       0       0       0       0
  2617 ;;      Locals:         0       0       0       0       0
  2618 ;;      Temps:          2       0       0       0       0
  2619 ;;      Totals:         4       0       0       0       0
  2620 ;;Total ram usage:        4 bytes
  2621 ;; Hardware stack levels used:    1
  2622 ;; This function calls:
  2623 ;;		Nothing
  2624 ;; This function is called by:
  2625 ;;		_main
  2626 ;; This function uses a non-reentrant model
  2627 ;;
  2628                           psect	text416,local,class=CODE,delta=2,merge=1
  2629                           global __ptext416
  2630  0498                     __ptext416:
  2631                           psect	text416
  2632                           	file	"Main.c"
  2633                           	line	79
  2634                           	global	__size_of_LED_Blinking
  2635  00A4                     	__size_of_LED_Blinking	equ	__end_of_LED_Blinking-_LED_Blinking
  2636                           	
  2637  0498                     _LED_Blinking:	
  2638                           	opt	stack 7
  2639                           ; Regs used in _LED_Blinking: [wreg]
  2640                           	line	80
  2641                           	
  2642  0498                     l1243:	
  2643                           ;Main.c: 80: if(k >= 1000 && k < 2000)
  2644  0498  3003               	movlw	high(03E8h)
  2645  0499  0271               	subwf	(LED_Blinking@k+1),w
  2646  049A  30E8               	movlw	low(03E8h)
  2647  049B  1903               	skipnz
  2648  049C  0270               	subwf	(LED_Blinking@k),w
  2649  049D  1C03               	skipc
  2650  049E  2CA0               	goto	u1361
  2651  049F  2CA1               	goto	u1360
  2652  04A0                     u1361:
  2653  04A0  2CAE               	goto	l1249
  2654  04A1                     u1360:
  2655                           	
  2656  04A1                     l1245:	
  2657  04A1  3007               	movlw	high(07D0h)
  2658  04A2  0271               	subwf	(LED_Blinking@k+1),w
  2659  04A3  30D0               	movlw	low(07D0h)
  2660  04A4  1903               	skipnz
  2661  04A5  0270               	subwf	(LED_Blinking@k),w
  2662  04A6  1803               	skipnc
  2663  04A7  2CA9               	goto	u1371
  2664  04A8  2CAA               	goto	u1370
  2665  04A9                     u1371:
  2666  04A9  2CAE               	goto	l1249
  2667  04AA                     u1370:
  2668                           	line	82
  2669                           	
  2670  04AA                     l1247:	
  2671                           ;Main.c: 81: {
  2672                           ;Main.c: 82: RC0 = 1;
  2673  04AA  1283               	bcf	status, 5	;RP0=0, select bank0
  2674  04AB  1303               	bcf	status, 6	;RP1=0, select bank0
  2675  04AC  1407               	bsf	(56/8),(56)&7	;volatile
  2676                           	line	83
  2677                           ;Main.c: 83: }
  2678  04AD  2D3B               	goto	l158
  2679                           	line	84
  2680                           	
  2681  04AE                     l148:	
  2682                           	
  2683  04AE                     l1249:	
  2684                           ;Main.c: 84: else if (k >= 2000 && k < 3000)
  2685  04AE  3007               	movlw	high(07D0h)
  2686  04AF  0271               	subwf	(LED_Blinking@k+1),w
  2687  04B0  30D0               	movlw	low(07D0h)
  2688  04B1  1903               	skipnz
  2689  04B2  0270               	subwf	(LED_Blinking@k),w
  2690  04B3  1C03               	skipc
  2691  04B4  2CB6               	goto	u1381
  2692  04B5  2CB7               	goto	u1380
  2693  04B6                     u1381:
  2694  04B6  2CC5               	goto	l1255
  2695  04B7                     u1380:
  2696                           	
  2697  04B7                     l1251:	
  2698  04B7  300B               	movlw	high(0BB8h)
  2699  04B8  0271               	subwf	(LED_Blinking@k+1),w
  2700  04B9  30B8               	movlw	low(0BB8h)
  2701  04BA  1903               	skipnz
  2702  04BB  0270               	subwf	(LED_Blinking@k),w
  2703  04BC  1803               	skipnc
  2704  04BD  2CBF               	goto	u1391
  2705  04BE  2CC0               	goto	u1390
  2706  04BF                     u1391:
  2707  04BF  2CC5               	goto	l1255
  2708  04C0                     u1390:
  2709                           	line	86
  2710                           	
  2711  04C0                     l1253:	
  2712                           ;Main.c: 85: {
  2713                           ;Main.c: 86: RC0 = 1;
  2714  04C0  1283               	bcf	status, 5	;RP0=0, select bank0
  2715  04C1  1303               	bcf	status, 6	;RP1=0, select bank0
  2716  04C2  1407               	bsf	(56/8),(56)&7	;volatile
  2717                           	line	87
  2718                           ;Main.c: 87: RC1 = 1;
  2719  04C3  1487               	bsf	(57/8),(57)&7	;volatile
  2720                           	line	88
  2721                           ;Main.c: 88: }
  2722  04C4  2D3B               	goto	l158
  2723                           	line	89
  2724                           	
  2725  04C5                     l150:	
  2726                           	
  2727  04C5                     l1255:	
  2728                           ;Main.c: 89: else if(k >= 3000 && k< 4000)
  2729  04C5  300B               	movlw	high(0BB8h)
  2730  04C6  0271               	subwf	(LED_Blinking@k+1),w
  2731  04C7  30B8               	movlw	low(0BB8h)
  2732  04C8  1903               	skipnz
  2733  04C9  0270               	subwf	(LED_Blinking@k),w
  2734  04CA  1C03               	skipc
  2735  04CB  2CCD               	goto	u1401
  2736  04CC  2CCE               	goto	u1400
  2737  04CD                     u1401:
  2738  04CD  2CDD               	goto	l1261
  2739  04CE                     u1400:
  2740                           	
  2741  04CE                     l1257:	
  2742  04CE  300F               	movlw	high(0FA0h)
  2743  04CF  0271               	subwf	(LED_Blinking@k+1),w
  2744  04D0  30A0               	movlw	low(0FA0h)
  2745  04D1  1903               	skipnz
  2746  04D2  0270               	subwf	(LED_Blinking@k),w
  2747  04D3  1803               	skipnc
  2748  04D4  2CD6               	goto	u1411
  2749  04D5  2CD7               	goto	u1410
  2750  04D6                     u1411:
  2751  04D6  2CDD               	goto	l1261
  2752  04D7                     u1410:
  2753                           	line	91
  2754                           	
  2755  04D7                     l1259:	
  2756                           ;Main.c: 90: {
  2757                           ;Main.c: 91: RC0 = 1;
  2758  04D7  1283               	bcf	status, 5	;RP0=0, select bank0
  2759  04D8  1303               	bcf	status, 6	;RP1=0, select bank0
  2760  04D9  1407               	bsf	(56/8),(56)&7	;volatile
  2761                           	line	92
  2762                           ;Main.c: 92: RC1 = 1;
  2763  04DA  1487               	bsf	(57/8),(57)&7	;volatile
  2764                           	line	93
  2765                           ;Main.c: 93: RC2 = 1;
  2766  04DB  1507               	bsf	(58/8),(58)&7	;volatile
  2767                           	line	94
  2768                           ;Main.c: 94: }
  2769  04DC  2D3B               	goto	l158
  2770                           	line	95
  2771                           	
  2772  04DD                     l152:	
  2773                           	
  2774  04DD                     l1261:	
  2775                           ;Main.c: 95: else if(k >= 4000 && k < 4800)
  2776  04DD  300F               	movlw	high(0FA0h)
  2777  04DE  0271               	subwf	(LED_Blinking@k+1),w
  2778  04DF  30A0               	movlw	low(0FA0h)
  2779  04E0  1903               	skipnz
  2780  04E1  0270               	subwf	(LED_Blinking@k),w
  2781  04E2  1C03               	skipc
  2782  04E3  2CE5               	goto	u1421
  2783  04E4  2CE6               	goto	u1420
  2784  04E5                     u1421:
  2785  04E5  2CF6               	goto	l1267
  2786  04E6                     u1420:
  2787                           	
  2788  04E6                     l1263:	
  2789  04E6  3012               	movlw	high(012C0h)
  2790  04E7  0271               	subwf	(LED_Blinking@k+1),w
  2791  04E8  30C0               	movlw	low(012C0h)
  2792  04E9  1903               	skipnz
  2793  04EA  0270               	subwf	(LED_Blinking@k),w
  2794  04EB  1803               	skipnc
  2795  04EC  2CEE               	goto	u1431
  2796  04ED  2CEF               	goto	u1430
  2797  04EE                     u1431:
  2798  04EE  2CF6               	goto	l1267
  2799  04EF                     u1430:
  2800                           	line	97
  2801                           	
  2802  04EF                     l1265:	
  2803                           ;Main.c: 96: {
  2804                           ;Main.c: 97: RC0 = 1;
  2805  04EF  1283               	bcf	status, 5	;RP0=0, select bank0
  2806  04F0  1303               	bcf	status, 6	;RP1=0, select bank0
  2807  04F1  1407               	bsf	(56/8),(56)&7	;volatile
  2808                           	line	98
  2809                           ;Main.c: 98: RC1 = 1;
  2810  04F2  1487               	bsf	(57/8),(57)&7	;volatile
  2811                           	line	99
  2812                           ;Main.c: 99: RC2 = 1;
  2813  04F3  1507               	bsf	(58/8),(58)&7	;volatile
  2814                           	line	100
  2815                           ;Main.c: 100: RC3 = 1;
  2816  04F4  1587               	bsf	(59/8),(59)&7	;volatile
  2817                           	line	101
  2818                           ;Main.c: 101: }
  2819  04F5  2D3B               	goto	l158
  2820                           	line	102
  2821                           	
  2822  04F6                     l154:	
  2823                           	
  2824  04F6                     l1267:	
  2825                           ;Main.c: 102: else if (k >= 4800)
  2826  04F6  3012               	movlw	high(012C0h)
  2827  04F7  0271               	subwf	(LED_Blinking@k+1),w
  2828  04F8  30C0               	movlw	low(012C0h)
  2829  04F9  1903               	skipnz
  2830  04FA  0270               	subwf	(LED_Blinking@k),w
  2831  04FB  1C03               	skipc
  2832  04FC  2CFE               	goto	u1441
  2833  04FD  2CFF               	goto	u1440
  2834  04FE                     u1441:
  2835  04FE  2D30               	goto	l156
  2836  04FF                     u1440:
  2837                           	line	104
  2838                           	
  2839  04FF                     l1269:	
  2840                           ;Main.c: 103: {
  2841                           ;Main.c: 104: RC0 ^= 1;
  2842  04FF  1283               	bcf	status, 5	;RP0=0, select bank0
  2843  0500  1303               	bcf	status, 6	;RP1=0, select bank0
  2844  0501  3001               	movlw	1<<((56)&7)
  2845  0502  0687               	xorwf	((56)/8),f
  2846                           	line	105
  2847                           ;Main.c: 105: _delay((unsigned long)((70)*(2e6/4000.0)));
  2848                           	opt asmopt_off
  2849  0503  302E               movlw	46
  2850  0504  00F3               movwf	((??_LED_Blinking+0)+0+1),f
  2851  0505  3073               	movlw	115
  2852  0506  00F2               movwf	((??_LED_Blinking+0)+0),f
  2853  0507                     u1897:
  2854  0507  0BF2               	decfsz	((??_LED_Blinking+0)+0),f
  2855  0508  2D07               	goto	u1897
  2856  0509  0BF3               	decfsz	((??_LED_Blinking+0)+0+1),f
  2857  050A  2D07               	goto	u1897
  2858                           opt asmopt_on
  2859                           
  2860                           	line	106
  2861                           ;Main.c: 106: RC1 ^= 1;
  2862  050B  1283               	bcf	status, 5	;RP0=0, select bank0
  2863  050C  1303               	bcf	status, 6	;RP1=0, select bank0
  2864  050D  3002               	movlw	1<<((57)&7)
  2865  050E  0687               	xorwf	((57)/8),f
  2866                           	line	107
  2867                           ;Main.c: 107: _delay((unsigned long)((70)*(2e6/4000.0)));
  2868                           	opt asmopt_off
  2869  050F  302E               movlw	46
  2870  0510  00F3               movwf	((??_LED_Blinking+0)+0+1),f
  2871  0511  3073               	movlw	115
  2872  0512  00F2               movwf	((??_LED_Blinking+0)+0),f
  2873  0513                     u1907:
  2874  0513  0BF2               	decfsz	((??_LED_Blinking+0)+0),f
  2875  0514  2D13               	goto	u1907
  2876  0515  0BF3               	decfsz	((??_LED_Blinking+0)+0+1),f
  2877  0516  2D13               	goto	u1907
  2878                           opt asmopt_on
  2879                           
  2880                           	line	108
  2881                           ;Main.c: 108: RC2 ^= 1;
  2882  0517  1283               	bcf	status, 5	;RP0=0, select bank0
  2883  0518  1303               	bcf	status, 6	;RP1=0, select bank0
  2884  0519  3004               	movlw	1<<((58)&7)
  2885  051A  0687               	xorwf	((58)/8),f
  2886                           	line	109
  2887                           ;Main.c: 109: _delay((unsigned long)((70)*(2e6/4000.0)));
  2888                           	opt asmopt_off
  2889  051B  302E               movlw	46
  2890  051C  00F3               movwf	((??_LED_Blinking+0)+0+1),f
  2891  051D  3073               	movlw	115
  2892  051E  00F2               movwf	((??_LED_Blinking+0)+0),f
  2893  051F                     u1917:
  2894  051F  0BF2               	decfsz	((??_LED_Blinking+0)+0),f
  2895  0520  2D1F               	goto	u1917
  2896  0521  0BF3               	decfsz	((??_LED_Blinking+0)+0+1),f
  2897  0522  2D1F               	goto	u1917
  2898                           opt asmopt_on
  2899                           
  2900                           	line	110
  2901                           ;Main.c: 110: RC3 ^= 1;
  2902  0523  1283               	bcf	status, 5	;RP0=0, select bank0
  2903  0524  1303               	bcf	status, 6	;RP1=0, select bank0
  2904  0525  3008               	movlw	1<<((59)&7)
  2905  0526  0687               	xorwf	((59)/8),f
  2906                           	line	111
  2907                           ;Main.c: 111: _delay((unsigned long)((70)*(2e6/4000.0)));
  2908                           	opt asmopt_off
  2909  0527  302E               movlw	46
  2910  0528  00F3               movwf	((??_LED_Blinking+0)+0+1),f
  2911  0529  3073               	movlw	115
  2912  052A  00F2               movwf	((??_LED_Blinking+0)+0),f
  2913  052B                     u1927:
  2914  052B  0BF2               	decfsz	((??_LED_Blinking+0)+0),f
  2915  052C  2D2B               	goto	u1927
  2916  052D  0BF3               	decfsz	((??_LED_Blinking+0)+0+1),f
  2917  052E  2D2B               	goto	u1927
  2918                           opt asmopt_on
  2919                           
  2920                           	line	112
  2921                           ;Main.c: 112: }
  2922  052F  2D3B               	goto	l158
  2923                           	line	113
  2924                           	
  2925  0530                     l156:	
  2926                           	line	115
  2927                           ;Main.c: 113: else
  2928                           ;Main.c: 114: {
  2929                           ;Main.c: 115: RC0 = 0;
  2930  0530  1283               	bcf	status, 5	;RP0=0, select bank0
  2931  0531  1303               	bcf	status, 6	;RP1=0, select bank0
  2932  0532  1007               	bcf	(56/8),(56)&7	;volatile
  2933                           	line	116
  2934                           ;Main.c: 116: RC1 = 0;
  2935  0533  1087               	bcf	(57/8),(57)&7	;volatile
  2936                           	line	117
  2937                           ;Main.c: 117: RC2 = 0;
  2938  0534  1107               	bcf	(58/8),(58)&7	;volatile
  2939                           	line	118
  2940                           ;Main.c: 118: RC3 = 0;
  2941  0535  1187               	bcf	(59/8),(59)&7	;volatile
  2942  0536  2D3B               	goto	l158
  2943                           	line	119
  2944                           	
  2945  0537                     l157:	
  2946  0537  2D3B               	goto	l158
  2947                           	
  2948  0538                     l155:	
  2949  0538  2D3B               	goto	l158
  2950                           	
  2951  0539                     l153:	
  2952  0539  2D3B               	goto	l158
  2953                           	
  2954  053A                     l151:	
  2955  053A  2D3B               	goto	l158
  2956                           	
  2957  053B                     l149:	
  2958                           	line	120
  2959                           	
  2960  053B                     l158:	
  2961  053B  0008               	return
  2962                           	opt stack 0
  2963                           GLOBAL	__end_of_LED_Blinking
  2964  053C                     	__end_of_LED_Blinking:
  2965                           	signat	_LED_Blinking,4216
  2966                           	global	___lwdiv
  2967                           
  2968 ;; *************** function ___lwdiv *****************
  2969 ;; Defined at:
  2970 ;;		line 5 in file "C:\Program Files (x86)\Microchip\xc8\v1.00\sources\lwdiv.c"
  2971 ;; Parameters:    Size  Location     Type
  2972 ;;  divisor         2    0[COMMON] unsigned int 
  2973 ;;  dividend        2    2[COMMON] unsigned int 
  2974 ;; Auto vars:     Size  Location     Type
  2975 ;;  quotient        2    5[COMMON] unsigned int 
  2976 ;;  counter         1    7[COMMON] unsigned char 
  2977 ;; Return value:  Size  Location     Type
  2978 ;;                  2    0[COMMON] unsigned int 
  2979 ;; Registers used:
  2980 ;;		wreg, status,2, status,0
  2981 ;; Tracked objects:
  2982 ;;		On entry : 0/0
  2983 ;;		On exit  : 0/0
  2984 ;;		Unchanged: 0/0
  2985 ;; Data sizes:     COMMON   BANK0   BANK1   BANK3   BANK2
  2986 ;;      Params:         4       0       0       0       0
  2987 ;;      Locals:         3       0       0       0       0
  2988 ;;      Temps:          1       0       0       0       0
  2989 ;;      Totals:         8       0       0       0       0
  2990 ;;Total ram usage:        8 bytes
  2991 ;; Hardware stack levels used:    1
  2992 ;; This function calls:
  2993 ;;		Nothing
  2994 ;; This function is called by:
  2995 ;;		_main
  2996 ;; This function uses a non-reentrant model
  2997 ;;
  2998                           psect	text417,local,class=CODE,delta=2,merge=1
  2999                           global __ptext417
  3000  02A8                     __ptext417:
  3001                           psect	text417
  3002                           	file	"C:\Program Files (x86)\Microchip\xc8\v1.00\sources\lwdiv.c"
  3003                           	line	5
  3004                           	global	__size_of___lwdiv
  3005  004E                     	__size_of___lwdiv	equ	__end_of___lwdiv-___lwdiv
  3006                           	
  3007  02A8                     ___lwdiv:	
  3008                           	opt	stack 7
  3009                           ; Regs used in ___lwdiv: [wreg+status,2+status,0]
  3010                           	line	9
  3011                           	
  3012  02A8                     l1125:	
  3013  02A8  01F5               	clrf	(___lwdiv@quotient)
  3014  02A9  01F6               	clrf	(___lwdiv@quotient+1)
  3015                           	line	10
  3016                           	
  3017  02AA                     l1127:	
  3018  02AA  0871               	movf	(___lwdiv@divisor+1),w
  3019  02AB  0470               	iorwf	(___lwdiv@divisor),w
  3020  02AC  1903               	skipnz
  3021  02AD  2AAF               	goto	u881
  3022  02AE  2AB0               	goto	u880
  3023  02AF                     u881:
  3024  02AF  2AEE               	goto	l1147
  3025  02B0                     u880:
  3026                           	line	11
  3027                           	
  3028  02B0                     l1129:	
  3029  02B0  01F7               	clrf	(___lwdiv@counter)
  3030  02B1  1403               	bsf	status,0
  3031  02B2  0DF7               	rlf	(___lwdiv@counter),f
  3032                           	line	12
  3033  02B3  2AC0               	goto	l1135
  3034                           	
  3035  02B4                     l255:	
  3036                           	line	13
  3037                           	
  3038  02B4                     l1131:	
  3039  02B4  3001               	movlw	01h
  3040                           	
  3041  02B5                     u895:
  3042  02B5  1003               	clrc
  3043  02B6  0DF0               	rlf	(___lwdiv@divisor),f
  3044  02B7  0DF1               	rlf	(___lwdiv@divisor+1),f
  3045  02B8  3EFF               	addlw	-1
  3046  02B9  1D03               	skipz
  3047  02BA  2AB5               	goto	u895
  3048                           	line	14
  3049                           	
  3050  02BB                     l1133:	
  3051  02BB  3001               	movlw	(01h)
  3052  02BC  00F4               	movwf	(??___lwdiv+0)+0
  3053  02BD  0874               	movf	(??___lwdiv+0)+0,w
  3054  02BE  07F7               	addwf	(___lwdiv@counter),f
  3055  02BF  2AC0               	goto	l1135
  3056                           	line	15
  3057                           	
  3058  02C0                     l254:	
  3059                           	line	12
  3060                           	
  3061  02C0                     l1135:	
  3062  02C0  1FF1               	btfss	(___lwdiv@divisor+1),(15)&7
  3063  02C1  2AC3               	goto	u901
  3064  02C2  2AC4               	goto	u900
  3065  02C3                     u901:
  3066  02C3  2AB4               	goto	l1131
  3067  02C4                     u900:
  3068  02C4  2AC6               	goto	l1137
  3069                           	
  3070  02C5                     l256:	
  3071  02C5  2AC6               	goto	l1137
  3072                           	line	16
  3073                           	
  3074  02C6                     l257:	
  3075                           	line	17
  3076                           	
  3077  02C6                     l1137:	
  3078  02C6  3001               	movlw	01h
  3079                           	
  3080  02C7                     u915:
  3081  02C7  1003               	clrc
  3082  02C8  0DF5               	rlf	(___lwdiv@quotient),f
  3083  02C9  0DF6               	rlf	(___lwdiv@quotient+1),f
  3084  02CA  3EFF               	addlw	-1
  3085  02CB  1D03               	skipz
  3086  02CC  2AC7               	goto	u915
  3087                           	line	18
  3088  02CD  0871               	movf	(___lwdiv@divisor+1),w
  3089  02CE  0273               	subwf	(___lwdiv@dividend+1),w
  3090  02CF  1D03               	skipz
  3091  02D0  2AD3               	goto	u925
  3092  02D1  0870               	movf	(___lwdiv@divisor),w
  3093  02D2  0272               	subwf	(___lwdiv@dividend),w
  3094  02D3                     u925:
  3095  02D3  1C03               	skipc
  3096  02D4  2AD6               	goto	u921
  3097  02D5  2AD7               	goto	u920
  3098  02D6                     u921:
  3099  02D6  2ADF               	goto	l1143
  3100  02D7                     u920:
  3101                           	line	19
  3102                           	
  3103  02D7                     l1139:	
  3104  02D7  0870               	movf	(___lwdiv@divisor),w
  3105  02D8  02F2               	subwf	(___lwdiv@dividend),f
  3106  02D9  0871               	movf	(___lwdiv@divisor+1),w
  3107  02DA  1C03               	skipc
  3108  02DB  03F3               	decf	(___lwdiv@dividend+1),f
  3109  02DC  02F3               	subwf	(___lwdiv@dividend+1),f
  3110                           	line	20
  3111                           	
  3112  02DD                     l1141:	
  3113  02DD  1475               	bsf	(___lwdiv@quotient)+(0/8),(0)&7
  3114  02DE  2ADF               	goto	l1143
  3115                           	line	21
  3116                           	
  3117  02DF                     l258:	
  3118                           	line	22
  3119                           	
  3120  02DF                     l1143:	
  3121  02DF  3001               	movlw	01h
  3122                           	
  3123  02E0                     u935:
  3124  02E0  1003               	clrc
  3125  02E1  0CF1               	rrf	(___lwdiv@divisor+1),f
  3126  02E2  0CF0               	rrf	(___lwdiv@divisor),f
  3127  02E3  3EFF               	addlw	-1
  3128  02E4  1D03               	skipz
  3129  02E5  2AE0               	goto	u935
  3130                           	line	23
  3131                           	
  3132  02E6                     l1145:	
  3133  02E6  3001               	movlw	low(01h)
  3134  02E7  02F7               	subwf	(___lwdiv@counter),f
  3135  02E8  1D03               	btfss	status,2
  3136  02E9  2AEB               	goto	u941
  3137  02EA  2AEC               	goto	u940
  3138  02EB                     u941:
  3139  02EB  2AC6               	goto	l1137
  3140  02EC                     u940:
  3141  02EC  2AEE               	goto	l1147
  3142                           	
  3143  02ED                     l259:	
  3144  02ED  2AEE               	goto	l1147
  3145                           	line	24
  3146                           	
  3147  02EE                     l253:	
  3148                           	line	25
  3149                           	
  3150  02EE                     l1147:	
  3151  02EE  0876               	movf	(___lwdiv@quotient+1),w
  3152  02EF  01F1               	clrf	(?___lwdiv+1)
  3153  02F0  07F1               	addwf	(?___lwdiv+1)
  3154  02F1  0875               	movf	(___lwdiv@quotient),w
  3155  02F2  01F0               	clrf	(?___lwdiv)
  3156  02F3  07F0               	addwf	(?___lwdiv)
  3157                           
  3158  02F4  2AF5               	goto	l260
  3159                           	
  3160  02F5                     l1149:	
  3161                           	line	26
  3162                           	
  3163  02F5                     l260:	
  3164  02F5  0008               	return
  3165                           	opt stack 0
  3166                           GLOBAL	__end_of___lwdiv
  3167  02F6                     	__end_of___lwdiv:
  3168                           	signat	___lwdiv,8314
  3169                           	global	___lwmod
  3170                           
  3171 ;; *************** function ___lwmod *****************
  3172 ;; Defined at:
  3173 ;;		line 5 in file "C:\Program Files (x86)\Microchip\xc8\v1.00\sources\lwmod.c"
  3174 ;; Parameters:    Size  Location     Type
  3175 ;;  divisor         2    0[COMMON] unsigned int 
  3176 ;;  dividend        2    2[COMMON] unsigned int 
  3177 ;; Auto vars:     Size  Location     Type
  3178 ;;  counter         1    5[COMMON] unsigned char 
  3179 ;; Return value:  Size  Location     Type
  3180 ;;                  2    0[COMMON] unsigned int 
  3181 ;; Registers used:
  3182 ;;		wreg, status,2, status,0
  3183 ;; Tracked objects:
  3184 ;;		On entry : 0/0
  3185 ;;		On exit  : 0/0
  3186 ;;		Unchanged: 0/0
  3187 ;; Data sizes:     COMMON   BANK0   BANK1   BANK3   BANK2
  3188 ;;      Params:         4       0       0       0       0
  3189 ;;      Locals:         1       0       0       0       0
  3190 ;;      Temps:          1       0       0       0       0
  3191 ;;      Totals:         6       0       0       0       0
  3192 ;;Total ram usage:        6 bytes
  3193 ;; Hardware stack levels used:    1
  3194 ;; This function calls:
  3195 ;;		Nothing
  3196 ;; This function is called by:
  3197 ;;		_main
  3198 ;; This function uses a non-reentrant model
  3199 ;;
  3200                           psect	text418,local,class=CODE,delta=2,merge=1
  3201                           global __ptext418
  3202  0264                     __ptext418:
  3203                           psect	text418
  3204                           	file	"C:\Program Files (x86)\Microchip\xc8\v1.00\sources\lwmod.c"
  3205                           	line	5
  3206                           	global	__size_of___lwmod
  3207  0044                     	__size_of___lwmod	equ	__end_of___lwmod-___lwmod
  3208                           	
  3209  0264                     ___lwmod:	
  3210                           	opt	stack 7
  3211                           ; Regs used in ___lwmod: [wreg+status,2+status,0]
  3212                           	line	8
  3213                           	
  3214  0264                     l1151:	
  3215  0264  0871               	movf	(___lwmod@divisor+1),w
  3216  0265  0470               	iorwf	(___lwmod@divisor),w
  3217  0266  1903               	skipnz
  3218  0267  2A69               	goto	u951
  3219  0268  2A6A               	goto	u950
  3220  0269                     u951:
  3221  0269  2AA0               	goto	l1169
  3222  026A                     u950:
  3223                           	line	9
  3224                           	
  3225  026A                     l1153:	
  3226  026A  01F5               	clrf	(___lwmod@counter)
  3227  026B  1403               	bsf	status,0
  3228  026C  0DF5               	rlf	(___lwmod@counter),f
  3229                           	line	10
  3230  026D  2A7A               	goto	l1159
  3231                           	
  3232  026E                     l265:	
  3233                           	line	11
  3234                           	
  3235  026E                     l1155:	
  3236  026E  3001               	movlw	01h
  3237                           	
  3238  026F                     u965:
  3239  026F  1003               	clrc
  3240  0270  0DF0               	rlf	(___lwmod@divisor),f
  3241  0271  0DF1               	rlf	(___lwmod@divisor+1),f
  3242  0272  3EFF               	addlw	-1
  3243  0273  1D03               	skipz
  3244  0274  2A6F               	goto	u965
  3245                           	line	12
  3246                           	
  3247  0275                     l1157:	
  3248  0275  3001               	movlw	(01h)
  3249  0276  00F4               	movwf	(??___lwmod+0)+0
  3250  0277  0874               	movf	(??___lwmod+0)+0,w
  3251  0278  07F5               	addwf	(___lwmod@counter),f
  3252  0279  2A7A               	goto	l1159
  3253                           	line	13
  3254                           	
  3255  027A                     l264:	
  3256                           	line	10
  3257                           	
  3258  027A                     l1159:	
  3259  027A  1FF1               	btfss	(___lwmod@divisor+1),(15)&7
  3260  027B  2A7D               	goto	u971
  3261  027C  2A7E               	goto	u970
  3262  027D                     u971:
  3263  027D  2A6E               	goto	l1155
  3264  027E                     u970:
  3265  027E  2A80               	goto	l1161
  3266                           	
  3267  027F                     l266:	
  3268  027F  2A80               	goto	l1161
  3269                           	line	14
  3270                           	
  3271  0280                     l267:	
  3272                           	line	15
  3273                           	
  3274  0280                     l1161:	
  3275  0280  0871               	movf	(___lwmod@divisor+1),w
  3276  0281  0273               	subwf	(___lwmod@dividend+1),w
  3277  0282  1D03               	skipz
  3278  0283  2A86               	goto	u985
  3279  0284  0870               	movf	(___lwmod@divisor),w
  3280  0285  0272               	subwf	(___lwmod@dividend),w
  3281  0286                     u985:
  3282  0286  1C03               	skipc
  3283  0287  2A89               	goto	u981
  3284  0288  2A8A               	goto	u980
  3285  0289                     u981:
  3286  0289  2A91               	goto	l1165
  3287  028A                     u980:
  3288                           	line	16
  3289                           	
  3290  028A                     l1163:	
  3291  028A  0870               	movf	(___lwmod@divisor),w
  3292  028B  02F2               	subwf	(___lwmod@dividend),f
  3293  028C  0871               	movf	(___lwmod@divisor+1),w
  3294  028D  1C03               	skipc
  3295  028E  03F3               	decf	(___lwmod@dividend+1),f
  3296  028F  02F3               	subwf	(___lwmod@dividend+1),f
  3297  0290  2A91               	goto	l1165
  3298                           	
  3299  0291                     l268:	
  3300                           	line	17
  3301                           	
  3302  0291                     l1165:	
  3303  0291  3001               	movlw	01h
  3304                           	
  3305  0292                     u995:
  3306  0292  1003               	clrc
  3307  0293  0CF1               	rrf	(___lwmod@divisor+1),f
  3308  0294  0CF0               	rrf	(___lwmod@divisor),f
  3309  0295  3EFF               	addlw	-1
  3310  0296  1D03               	skipz
  3311  0297  2A92               	goto	u995
  3312                           	line	18
  3313                           	
  3314  0298                     l1167:	
  3315  0298  3001               	movlw	low(01h)
  3316  0299  02F5               	subwf	(___lwmod@counter),f
  3317  029A  1D03               	btfss	status,2
  3318  029B  2A9D               	goto	u1001
  3319  029C  2A9E               	goto	u1000
  3320  029D                     u1001:
  3321  029D  2A80               	goto	l1161
  3322  029E                     u1000:
  3323  029E  2AA0               	goto	l1169
  3324                           	
  3325  029F                     l269:	
  3326  029F  2AA0               	goto	l1169
  3327                           	line	19
  3328                           	
  3329  02A0                     l263:	
  3330                           	line	20
  3331                           	
  3332  02A0                     l1169:	
  3333  02A0  0873               	movf	(___lwmod@dividend+1),w
  3334  02A1  01F1               	clrf	(?___lwmod+1)
  3335  02A2  07F1               	addwf	(?___lwmod+1)
  3336  02A3  0872               	movf	(___lwmod@dividend),w
  3337  02A4  01F0               	clrf	(?___lwmod)
  3338  02A5  07F0               	addwf	(?___lwmod)
  3339                           
  3340  02A6  2AA7               	goto	l270
  3341                           	
  3342  02A7                     l1171:	
  3343                           	line	21
  3344                           	
  3345  02A7                     l270:	
  3346  02A7  0008               	return
  3347                           	opt stack 0
  3348                           GLOBAL	__end_of___lwmod
  3349  02A8                     	__end_of___lwmod:
  3350                           	signat	___lwmod,8314
  3351                           	global	___ftmul
  3352                           
  3353 ;; *************** function ___ftmul *****************
  3354 ;; Defined at:
  3355 ;;		line 52 in file "C:\Program Files (x86)\Microchip\xc8\v1.00\sources\ftmul.c"
  3356 ;; Parameters:    Size  Location     Type
  3357 ;;  f1              3   13[BANK0 ] float 
  3358 ;;  f2              3   16[BANK0 ] float 
  3359 ;; Auto vars:     Size  Location     Type
  3360 ;;  f3_as_produc    3   24[BANK0 ] unsigned um
  3361 ;;  sign            1   28[BANK0 ] unsigned char 
  3362 ;;  cntr            1   27[BANK0 ] unsigned char 
  3363 ;;  exp             1   23[BANK0 ] unsigned char 
  3364 ;; Return value:  Size  Location     Type
  3365 ;;                  3   13[BANK0 ] float 
  3366 ;; Registers used:
  3367 ;;		wreg, status,2, status,0, pclath, cstack
  3368 ;; Tracked objects:
  3369 ;;		On entry : 0/0
  3370 ;;		On exit  : 0/0
  3371 ;;		Unchanged: 0/0
  3372 ;; Data sizes:     COMMON   BANK0   BANK1   BANK3   BANK2
  3373 ;;      Params:         0       6       0       0       0
  3374 ;;      Locals:         0       6       0       0       0
  3375 ;;      Temps:          0       4       0       0       0
  3376 ;;      Totals:         0      16       0       0       0
  3377 ;;Total ram usage:       16 bytes
  3378 ;; Hardware stack levels used:    1
  3379 ;; Hardware stack levels required when called:    1
  3380 ;; This function calls:
  3381 ;;		___ftpack
  3382 ;; This function is called by:
  3383 ;;		_main
  3384 ;; This function uses a non-reentrant model
  3385 ;;
  3386                           psect	text419,local,class=CODE,delta=2,merge=1
  3387                           global __ptext419
  3388  05E2                     __ptext419:
  3389                           psect	text419
  3390                           	file	"C:\Program Files (x86)\Microchip\xc8\v1.00\sources\ftmul.c"
  3391                           	line	52
  3392                           	global	__size_of___ftmul
  3393  00EE                     	__size_of___ftmul	equ	__end_of___ftmul-___ftmul
  3394                           	
  3395  05E2                     ___ftmul:	
  3396                           	opt	stack 6
  3397                           ; Regs used in ___ftmul: [wreg+status,2+status,0+pclath+cstack]
  3398                           	line	56
  3399                           	
  3400  05E2                     l1327:	
  3401  05E2  1283               	bcf	status, 5	;RP0=0, select bank0
  3402  05E3  1303               	bcf	status, 6	;RP1=0, select bank0
  3403  05E4  082D               	movf	(___ftmul@f1),w
  3404  05E5  00B3               	movwf	((??___ftmul+0)+0)
  3405  05E6  082E               	movf	(___ftmul@f1+1),w
  3406  05E7  00B4               	movwf	((??___ftmul+0)+0+1)
  3407  05E8  082F               	movf	(___ftmul@f1+2),w
  3408  05E9  00B5               	movwf	((??___ftmul+0)+0+2)
  3409  05EA  1003               	clrc
  3410  05EB  0D34               	rlf	(??___ftmul+0)+1,w
  3411  05EC  0D35               	rlf	(??___ftmul+0)+2,w
  3412  05ED  00B6               	movwf	(??___ftmul+3)+0
  3413  05EE  0836               	movf	(??___ftmul+3)+0,w
  3414  05EF  00B7               	movwf	(___ftmul@exp)
  3415  05F0  08B7               	movf	((___ftmul@exp)),f
  3416  05F1  1D03               	skipz
  3417  05F2  2DF4               	goto	u1551
  3418  05F3  2DF5               	goto	u1550
  3419  05F4                     u1551:
  3420  05F4  2DFD               	goto	l1333
  3421  05F5                     u1550:
  3422                           	line	57
  3423                           	
  3424  05F5                     l1329:	
  3425  05F5  3000               	movlw	0x0
  3426  05F6  00AD               	movwf	(?___ftmul)
  3427  05F7  3000               	movlw	0x0
  3428  05F8  00AE               	movwf	(?___ftmul+1)
  3429  05F9  3000               	movlw	0x0
  3430  05FA  00AF               	movwf	(?___ftmul+2)
  3431  05FB  2ECF               	goto	l346
  3432                           	
  3433  05FC                     l1331:	
  3434  05FC  2ECF               	goto	l346
  3435                           	
  3436  05FD                     l345:	
  3437                           	line	58
  3438                           	
  3439  05FD                     l1333:	
  3440  05FD  0830               	movf	(___ftmul@f2),w
  3441  05FE  00B3               	movwf	((??___ftmul+0)+0)
  3442  05FF  0831               	movf	(___ftmul@f2+1),w
  3443  0600  00B4               	movwf	((??___ftmul+0)+0+1)
  3444  0601  0832               	movf	(___ftmul@f2+2),w
  3445  0602  00B5               	movwf	((??___ftmul+0)+0+2)
  3446  0603  1003               	clrc
  3447  0604  0D34               	rlf	(??___ftmul+0)+1,w
  3448  0605  0D35               	rlf	(??___ftmul+0)+2,w
  3449  0606  00B6               	movwf	(??___ftmul+3)+0
  3450  0607  0836               	movf	(??___ftmul+3)+0,w
  3451  0608  00BC               	movwf	(___ftmul@sign)
  3452  0609  08BC               	movf	((___ftmul@sign)),f
  3453  060A  1D03               	skipz
  3454  060B  2E0D               	goto	u1561
  3455  060C  2E0E               	goto	u1560
  3456  060D                     u1561:
  3457  060D  2E16               	goto	l1339
  3458  060E                     u1560:
  3459                           	line	59
  3460                           	
  3461  060E                     l1335:	
  3462  060E  3000               	movlw	0x0
  3463  060F  00AD               	movwf	(?___ftmul)
  3464  0610  3000               	movlw	0x0
  3465  0611  00AE               	movwf	(?___ftmul+1)
  3466  0612  3000               	movlw	0x0
  3467  0613  00AF               	movwf	(?___ftmul+2)
  3468  0614  2ECF               	goto	l346
  3469                           	
  3470  0615                     l1337:	
  3471  0615  2ECF               	goto	l346
  3472                           	
  3473  0616                     l347:	
  3474                           	line	60
  3475                           	
  3476  0616                     l1339:	
  3477  0616  083C               	movf	(___ftmul@sign),w
  3478  0617  3E7B               	addlw	07Bh
  3479  0618  00B3               	movwf	(??___ftmul+0)+0
  3480  0619  0833               	movf	(??___ftmul+0)+0,w
  3481  061A  07B7               	addwf	(___ftmul@exp),f
  3482                           	line	61
  3483  061B  082D               	movf	(___ftmul@f1),w
  3484  061C  00B3               	movwf	((??___ftmul+0)+0)
  3485  061D  082E               	movf	(___ftmul@f1+1),w
  3486  061E  00B4               	movwf	((??___ftmul+0)+0+1)
  3487  061F  082F               	movf	(___ftmul@f1+2),w
  3488  0620  00B5               	movwf	((??___ftmul+0)+0+2)
  3489  0621  3010               	movlw	010h
  3490  0622                     u1575:
  3491  0622  1003               	clrc
  3492  0623  0CB5               	rrf	(??___ftmul+0)+2,f
  3493  0624  0CB4               	rrf	(??___ftmul+0)+1,f
  3494  0625  0CB3               	rrf	(??___ftmul+0)+0,f
  3495  0626                     u1570:
  3496  0626  3EFF               	addlw	-1
  3497  0627  1D03               	skipz
  3498  0628  2E22               	goto	u1575
  3499  0629  0833               	movf	0+(??___ftmul+0)+0,w
  3500  062A  00B6               	movwf	(??___ftmul+3)+0
  3501  062B  0836               	movf	(??___ftmul+3)+0,w
  3502  062C  00BC               	movwf	(___ftmul@sign)
  3503                           	line	62
  3504  062D  0830               	movf	(___ftmul@f2),w
  3505  062E  00B3               	movwf	((??___ftmul+0)+0)
  3506  062F  0831               	movf	(___ftmul@f2+1),w
  3507  0630  00B4               	movwf	((??___ftmul+0)+0+1)
  3508  0631  0832               	movf	(___ftmul@f2+2),w
  3509  0632  00B5               	movwf	((??___ftmul+0)+0+2)
  3510  0633  3010               	movlw	010h
  3511  0634                     u1585:
  3512  0634  1003               	clrc
  3513  0635  0CB5               	rrf	(??___ftmul+0)+2,f
  3514  0636  0CB4               	rrf	(??___ftmul+0)+1,f
  3515  0637  0CB3               	rrf	(??___ftmul+0)+0,f
  3516  0638                     u1580:
  3517  0638  3EFF               	addlw	-1
  3518  0639  1D03               	skipz
  3519  063A  2E34               	goto	u1585
  3520  063B  0833               	movf	0+(??___ftmul+0)+0,w
  3521  063C  00B6               	movwf	(??___ftmul+3)+0
  3522  063D  0836               	movf	(??___ftmul+3)+0,w
  3523  063E  06BC               	xorwf	(___ftmul@sign),f
  3524                           	line	63
  3525  063F  3080               	movlw	(080h)
  3526  0640  00B3               	movwf	(??___ftmul+0)+0
  3527  0641  0833               	movf	(??___ftmul+0)+0,w
  3528  0642  05BC               	andwf	(___ftmul@sign),f
  3529                           	line	64
  3530                           	
  3531  0643                     l1341:	
  3532  0643  17AE               	bsf	(___ftmul@f1)+(15/8),(15)&7
  3533                           	line	66
  3534                           	
  3535  0644                     l1343:	
  3536  0644  17B1               	bsf	(___ftmul@f2)+(15/8),(15)&7
  3537                           	line	67
  3538                           	
  3539  0645                     l1345:	
  3540  0645  30FF               	movlw	0FFh
  3541  0646  05B0               	andwf	(___ftmul@f2),f
  3542  0647  30FF               	movlw	0FFh
  3543  0648  05B1               	andwf	(___ftmul@f2+1),f
  3544  0649  3000               	movlw	0
  3545  064A  05B2               	andwf	(___ftmul@f2+2),f
  3546                           	line	68
  3547                           	
  3548  064B                     l1347:	
  3549  064B  3000               	movlw	0
  3550  064C  00B8               	movwf	(___ftmul@f3_as_product)
  3551  064D  3000               	movlw	0
  3552  064E  00B9               	movwf	(___ftmul@f3_as_product+1)
  3553  064F  3000               	movlw	0
  3554  0650  00BA               	movwf	(___ftmul@f3_as_product+2)
  3555                           	line	69
  3556                           	
  3557  0651                     l1349:	
  3558  0651  3007               	movlw	(07h)
  3559  0652  00B3               	movwf	(??___ftmul+0)+0
  3560  0653  0833               	movf	(??___ftmul+0)+0,w
  3561  0654  00BB               	movwf	(___ftmul@cntr)
  3562  0655  2E56               	goto	l1351
  3563                           	line	70
  3564                           	
  3565  0656                     l348:	
  3566                           	line	71
  3567                           	
  3568  0656                     l1351:	
  3569  0656  1C2D               	btfss	(___ftmul@f1),(0)&7
  3570  0657  2E59               	goto	u1591
  3571  0658  2E5A               	goto	u1590
  3572  0659                     u1591:
  3573  0659  2E6B               	goto	l1355
  3574  065A                     u1590:
  3575                           	line	72
  3576                           	
  3577  065A                     l1353:	
  3578  065A  0830               	movf	(___ftmul@f2),w
  3579  065B  07B8               	addwf	(___ftmul@f3_as_product),f
  3580  065C  0831               	movf	(___ftmul@f2+1),w
  3581  065D  1103               	clrz
  3582  065E  1803               	skipnc
  3583  065F  0A31               	incf	(___ftmul@f2+1),w
  3584  0660  1903               	skipnz
  3585  0661  2E63               	goto	u1601
  3586  0662  07B9               	addwf	(___ftmul@f3_as_product+1),f
  3587  0663                     u1601:
  3588  0663  0832               	movf	(___ftmul@f2+2),w
  3589  0664  1103               	clrz
  3590  0665  1803               	skipnc
  3591  0666  0A32               	incf	(___ftmul@f2+2),w
  3592  0667  1903               	skipnz
  3593  0668  2E6A               	goto	u1602
  3594  0669  07BA               	addwf	(___ftmul@f3_as_product+2),f
  3595  066A                     u1602:
  3596                           
  3597  066A  2E6B               	goto	l1355
  3598                           	
  3599  066B                     l349:	
  3600                           	line	73
  3601                           	
  3602  066B                     l1355:	
  3603  066B  3001               	movlw	01h
  3604  066C                     u1615:
  3605  066C  1003               	clrc
  3606  066D  0CAF               	rrf	(___ftmul@f1+2),f
  3607  066E  0CAE               	rrf	(___ftmul@f1+1),f
  3608  066F  0CAD               	rrf	(___ftmul@f1),f
  3609  0670  3EFF               	addlw	-1
  3610  0671  1D03               	skipz
  3611  0672  2E6C               	goto	u1615
  3612                           
  3613                           	line	74
  3614                           	
  3615  0673                     l1357:	
  3616  0673  3001               	movlw	01h
  3617  0674                     u1625:
  3618  0674  1003               	clrc
  3619  0675  0DB0               	rlf	(___ftmul@f2),f
  3620  0676  0DB1               	rlf	(___ftmul@f2+1),f
  3621  0677  0DB2               	rlf	(___ftmul@f2+2),f
  3622  0678  3EFF               	addlw	-1
  3623  0679  1D03               	skipz
  3624  067A  2E74               	goto	u1625
  3625                           	line	75
  3626                           	
  3627  067B                     l1359:	
  3628  067B  3001               	movlw	low(01h)
  3629  067C  02BB               	subwf	(___ftmul@cntr),f
  3630  067D  1D03               	btfss	status,2
  3631  067E  2E80               	goto	u1631
  3632  067F  2E81               	goto	u1630
  3633  0680                     u1631:
  3634  0680  2E56               	goto	l1351
  3635  0681                     u1630:
  3636  0681  2E82               	goto	l1361
  3637                           	
  3638  0682                     l350:	
  3639                           	line	76
  3640                           	
  3641  0682                     l1361:	
  3642  0682  3009               	movlw	(09h)
  3643  0683  00B3               	movwf	(??___ftmul+0)+0
  3644  0684  0833               	movf	(??___ftmul+0)+0,w
  3645  0685  00BB               	movwf	(___ftmul@cntr)
  3646  0686  2E87               	goto	l1363
  3647                           	line	77
  3648                           	
  3649  0687                     l351:	
  3650                           	line	78
  3651                           	
  3652  0687                     l1363:	
  3653  0687  1C2D               	btfss	(___ftmul@f1),(0)&7
  3654  0688  2E8A               	goto	u1641
  3655  0689  2E8B               	goto	u1640
  3656  068A                     u1641:
  3657  068A  2E9C               	goto	l1367
  3658  068B                     u1640:
  3659                           	line	79
  3660                           	
  3661  068B                     l1365:	
  3662  068B  0830               	movf	(___ftmul@f2),w
  3663  068C  07B8               	addwf	(___ftmul@f3_as_product),f
  3664  068D  0831               	movf	(___ftmul@f2+1),w
  3665  068E  1103               	clrz
  3666  068F  1803               	skipnc
  3667  0690  0A31               	incf	(___ftmul@f2+1),w
  3668  0691  1903               	skipnz
  3669  0692  2E94               	goto	u1651
  3670  0693  07B9               	addwf	(___ftmul@f3_as_product+1),f
  3671  0694                     u1651:
  3672  0694  0832               	movf	(___ftmul@f2+2),w
  3673  0695  1103               	clrz
  3674  0696  1803               	skipnc
  3675  0697  0A32               	incf	(___ftmul@f2+2),w
  3676  0698  1903               	skipnz
  3677  0699  2E9B               	goto	u1652
  3678  069A  07BA               	addwf	(___ftmul@f3_as_product+2),f
  3679  069B                     u1652:
  3680                           
  3681  069B  2E9C               	goto	l1367
  3682                           	
  3683  069C                     l352:	
  3684                           	line	80
  3685                           	
  3686  069C                     l1367:	
  3687  069C  3001               	movlw	01h
  3688  069D                     u1665:
  3689  069D  1003               	clrc
  3690  069E  0CAF               	rrf	(___ftmul@f1+2),f
  3691  069F  0CAE               	rrf	(___ftmul@f1+1),f
  3692  06A0  0CAD               	rrf	(___ftmul@f1),f
  3693  06A1  3EFF               	addlw	-1
  3694  06A2  1D03               	skipz
  3695  06A3  2E9D               	goto	u1665
  3696                           
  3697                           	line	81
  3698                           	
  3699  06A4                     l1369:	
  3700  06A4  3001               	movlw	01h
  3701  06A5                     u1675:
  3702  06A5  1003               	clrc
  3703  06A6  0CBA               	rrf	(___ftmul@f3_as_product+2),f
  3704  06A7  0CB9               	rrf	(___ftmul@f3_as_product+1),f
  3705  06A8  0CB8               	rrf	(___ftmul@f3_as_product),f
  3706  06A9  3EFF               	addlw	-1
  3707  06AA  1D03               	skipz
  3708  06AB  2EA5               	goto	u1675
  3709                           
  3710                           	line	82
  3711                           	
  3712  06AC                     l1371:	
  3713  06AC  3001               	movlw	low(01h)
  3714  06AD  02BB               	subwf	(___ftmul@cntr),f
  3715  06AE  1D03               	btfss	status,2
  3716  06AF  2EB1               	goto	u1681
  3717  06B0  2EB2               	goto	u1680
  3718  06B1                     u1681:
  3719  06B1  2E87               	goto	l1363
  3720  06B2                     u1680:
  3721  06B2  2EB3               	goto	l1373
  3722                           	
  3723  06B3                     l353:	
  3724                           	line	83
  3725                           	
  3726  06B3                     l1373:	
  3727  06B3  0838               	movf	(___ftmul@f3_as_product),w
  3728  06B4  00F0               	movwf	(?___ftpack)
  3729  06B5  0839               	movf	(___ftmul@f3_as_product+1),w
  3730  06B6  00F1               	movwf	(?___ftpack+1)
  3731  06B7  083A               	movf	(___ftmul@f3_as_product+2),w
  3732  06B8  00F2               	movwf	(?___ftpack+2)
  3733  06B9  0837               	movf	(___ftmul@exp),w
  3734  06BA  00B3               	movwf	(??___ftmul+0)+0
  3735  06BB  0833               	movf	(??___ftmul+0)+0,w
  3736  06BC  00F3               	movwf	0+(?___ftpack)+03h
  3737  06BD  083C               	movf	(___ftmul@sign),w
  3738  06BE  00B4               	movwf	(??___ftmul+1)+0
  3739  06BF  0834               	movf	(??___ftmul+1)+0,w
  3740  06C0  00F4               	movwf	0+(?___ftpack)+04h
  3741  06C1  120A  118A  22F6   	fcall	___ftpack
              120A  118A         
  3742  06C6  0870               	movf	(0+(?___ftpack)),w
  3743  06C7  1283               	bcf	status, 5	;RP0=0, select bank0
  3744  06C8  1303               	bcf	status, 6	;RP1=0, select bank0
  3745  06C9  00AD               	movwf	(?___ftmul)
  3746  06CA  0871               	movf	(1+(?___ftpack)),w
  3747  06CB  00AE               	movwf	(?___ftmul+1)
  3748  06CC  0872               	movf	(2+(?___ftpack)),w
  3749  06CD  00AF               	movwf	(?___ftmul+2)
  3750  06CE  2ECF               	goto	l346
  3751                           	
  3752  06CF                     l1375:	
  3753                           	line	84
  3754                           	
  3755  06CF                     l346:	
  3756  06CF  0008               	return
  3757                           	opt stack 0
  3758                           GLOBAL	__end_of___ftmul
  3759  06D0                     	__end_of___ftmul:
  3760                           	signat	___ftmul,8315
  3761                           	global	___fttol
  3762                           
  3763 ;; *************** function ___fttol *****************
  3764 ;; Defined at:
  3765 ;;		line 45 in file "C:\Program Files (x86)\Microchip\xc8\v1.00\sources\fttol.c"
  3766 ;; Parameters:    Size  Location     Type
  3767 ;;  f1              3    8[COMMON] float 
  3768 ;; Auto vars:     Size  Location     Type
  3769 ;;  lval            4    5[BANK0 ] unsigned long 
  3770 ;;  exp1            1    9[BANK0 ] unsigned char 
  3771 ;;  sign1           1    4[BANK0 ] unsigned char 
  3772 ;; Return value:  Size  Location     Type
  3773 ;;                  4    8[COMMON] long 
  3774 ;; Registers used:
  3775 ;;		wreg, status,2, status,0
  3776 ;; Tracked objects:
  3777 ;;		On entry : 0/0
  3778 ;;		On exit  : 0/0
  3779 ;;		Unchanged: 0/0
  3780 ;; Data sizes:     COMMON   BANK0   BANK1   BANK3   BANK2
  3781 ;;      Params:         4       0       0       0       0
  3782 ;;      Locals:         0       6       0       0       0
  3783 ;;      Temps:          0       4       0       0       0
  3784 ;;      Totals:         4      10       0       0       0
  3785 ;;Total ram usage:       14 bytes
  3786 ;; Hardware stack levels used:    1
  3787 ;; This function calls:
  3788 ;;		Nothing
  3789 ;; This function is called by:
  3790 ;;		_main
  3791 ;; This function uses a non-reentrant model
  3792 ;;
  3793                           psect	text420,local,class=CODE,delta=2,merge=1
  3794                           global __ptext420
  3795  053C                     __ptext420:
  3796                           psect	text420
  3797                           	file	"C:\Program Files (x86)\Microchip\xc8\v1.00\sources\fttol.c"
  3798                           	line	45
  3799                           	global	__size_of___fttol
  3800  00A6                     	__size_of___fttol	equ	__end_of___fttol-___fttol
  3801                           	
  3802  053C                     ___fttol:	
  3803                           	opt	stack 7
  3804                           ; Regs used in ___fttol: [wreg+status,2+status,0]
  3805                           	line	49
  3806                           	
  3807  053C                     l1271:	
  3808  053C  0878               	movf	(___fttol@f1),w
  3809  053D  1283               	bcf	status, 5	;RP0=0, select bank0
  3810  053E  1303               	bcf	status, 6	;RP1=0, select bank0
  3811  053F  00A0               	movwf	((??___fttol+0)+0)
  3812  0540  0879               	movf	(___fttol@f1+1),w
  3813  0541  00A1               	movwf	((??___fttol+0)+0+1)
  3814  0542  087A               	movf	(___fttol@f1+2),w
  3815  0543  00A2               	movwf	((??___fttol+0)+0+2)
  3816  0544  1003               	clrc
  3817  0545  0D21               	rlf	(??___fttol+0)+1,w
  3818  0546  0D22               	rlf	(??___fttol+0)+2,w
  3819  0547  00A3               	movwf	(??___fttol+3)+0
  3820  0548  0823               	movf	(??___fttol+3)+0,w
  3821  0549  00A9               	movwf	(___fttol@exp1)
  3822  054A  08A9               	movf	((___fttol@exp1)),f
  3823  054B  1D03               	skipz
  3824  054C  2D4E               	goto	u1451
  3825  054D  2D4F               	goto	u1450
  3826  054E                     u1451:
  3827  054E  2D59               	goto	l1277
  3828  054F                     u1450:
  3829                           	line	50
  3830                           	
  3831  054F                     l1273:	
  3832  054F  3000               	movlw	0
  3833  0550  00FB               	movwf	(?___fttol+3)
  3834  0551  3000               	movlw	0
  3835  0552  00FA               	movwf	(?___fttol+2)
  3836  0553  3000               	movlw	0
  3837  0554  00F9               	movwf	(?___fttol+1)
  3838  0555  3000               	movlw	0
  3839  0556  00F8               	movwf	(?___fttol)
  3840                           
  3841  0557  2DE1               	goto	l357
  3842                           	
  3843  0558                     l1275:	
  3844  0558  2DE1               	goto	l357
  3845                           	
  3846  0559                     l356:	
  3847                           	line	51
  3848                           	
  3849  0559                     l1277:	
  3850  0559  0878               	movf	(___fttol@f1),w
  3851  055A  00A0               	movwf	((??___fttol+0)+0)
  3852  055B  0879               	movf	(___fttol@f1+1),w
  3853  055C  00A1               	movwf	((??___fttol+0)+0+1)
  3854  055D  087A               	movf	(___fttol@f1+2),w
  3855  055E  00A2               	movwf	((??___fttol+0)+0+2)
  3856  055F  3017               	movlw	017h
  3857  0560                     u1465:
  3858  0560  1003               	clrc
  3859  0561  0CA2               	rrf	(??___fttol+0)+2,f
  3860  0562  0CA1               	rrf	(??___fttol+0)+1,f
  3861  0563  0CA0               	rrf	(??___fttol+0)+0,f
  3862  0564                     u1460:
  3863  0564  3EFF               	addlw	-1
  3864  0565  1D03               	skipz
  3865  0566  2D60               	goto	u1465
  3866  0567  0820               	movf	0+(??___fttol+0)+0,w
  3867  0568  00A3               	movwf	(??___fttol+3)+0
  3868  0569  0823               	movf	(??___fttol+3)+0,w
  3869  056A  00A4               	movwf	(___fttol@sign1)
  3870                           	line	52
  3871                           	
  3872  056B                     l1279:	
  3873  056B  17F9               	bsf	(___fttol@f1)+(15/8),(15)&7
  3874                           	line	53
  3875                           	
  3876  056C                     l1281:	
  3877  056C  30FF               	movlw	0FFh
  3878  056D  05F8               	andwf	(___fttol@f1),f
  3879  056E  30FF               	movlw	0FFh
  3880  056F  05F9               	andwf	(___fttol@f1+1),f
  3881  0570  3000               	movlw	0
  3882  0571  05FA               	andwf	(___fttol@f1+2),f
  3883                           	line	54
  3884                           	
  3885  0572                     l1283:	
  3886  0572  0878               	movf	(___fttol@f1),w
  3887  0573  00A5               	movwf	(___fttol@lval)
  3888  0574  0879               	movf	(___fttol@f1+1),w
  3889  0575  00A6               	movwf	((___fttol@lval))+1
  3890  0576  087A               	movf	(___fttol@f1+2),w
  3891  0577  00A7               	movwf	((___fttol@lval))+2
  3892  0578  01A8               	clrf	((___fttol@lval))+3
  3893                           	line	55
  3894                           	
  3895  0579                     l1285:	
  3896  0579  308E               	movlw	low(08Eh)
  3897  057A  02A9               	subwf	(___fttol@exp1),f
  3898                           	line	56
  3899                           	
  3900  057B                     l1287:	
  3901  057B  1FA9               	btfss	(___fttol@exp1),7
  3902  057C  2D7E               	goto	u1471
  3903  057D  2D7F               	goto	u1470
  3904  057E                     u1471:
  3905  057E  2DA4               	goto	l1297
  3906  057F                     u1470:
  3907                           	line	57
  3908                           	
  3909  057F                     l1289:	
  3910  057F  0829               	movf	(___fttol@exp1),w
  3911  0580  3A80               	xorlw	80h
  3912  0581  3E8F               	addlw	-((-15)^80h)
  3913  0582  1803               	skipnc
  3914  0583  2D85               	goto	u1481
  3915  0584  2D86               	goto	u1480
  3916  0585                     u1481:
  3917  0585  2D91               	goto	l1295
  3918  0586                     u1480:
  3919                           	line	58
  3920                           	
  3921  0586                     l1291:	
  3922  0586  3000               	movlw	0
  3923  0587  00FB               	movwf	(?___fttol+3)
  3924  0588  3000               	movlw	0
  3925  0589  00FA               	movwf	(?___fttol+2)
  3926  058A  3000               	movlw	0
  3927  058B  00F9               	movwf	(?___fttol+1)
  3928  058C  3000               	movlw	0
  3929  058D  00F8               	movwf	(?___fttol)
  3930                           
  3931  058E  2DE1               	goto	l357
  3932                           	
  3933  058F                     l1293:	
  3934  058F  2DE1               	goto	l357
  3935                           	
  3936  0590                     l359:	
  3937  0590  2D91               	goto	l1295
  3938                           	line	59
  3939                           	
  3940  0591                     l360:	
  3941                           	line	60
  3942                           	
  3943  0591                     l1295:	
  3944  0591  3001               	movlw	01h
  3945  0592                     u1495:
  3946  0592  1003               	clrc
  3947  0593  0CA8               	rrf	(___fttol@lval+3),f
  3948  0594  0CA7               	rrf	(___fttol@lval+2),f
  3949  0595  0CA6               	rrf	(___fttol@lval+1),f
  3950  0596  0CA5               	rrf	(___fttol@lval),f
  3951  0597  3EFF               	addlw	-1
  3952  0598  1D03               	skipz
  3953  0599  2D92               	goto	u1495
  3954                           
  3955                           	line	61
  3956  059A  3001               	movlw	(01h)
  3957  059B  00A0               	movwf	(??___fttol+0)+0
  3958  059C  0820               	movf	(??___fttol+0)+0,w
  3959  059D  07A9               	addwf	(___fttol@exp1),f
  3960  059E  1D03               	btfss	status,2
  3961  059F  2DA1               	goto	u1501
  3962  05A0  2DA2               	goto	u1500
  3963  05A1                     u1501:
  3964  05A1  2D91               	goto	l1295
  3965  05A2                     u1500:
  3966  05A2  2DC8               	goto	l1307
  3967                           	
  3968  05A3                     l361:	
  3969                           	line	62
  3970  05A3  2DC8               	goto	l1307
  3971                           	
  3972  05A4                     l358:	
  3973                           	line	63
  3974                           	
  3975  05A4                     l1297:	
  3976  05A4  3018               	movlw	(018h)
  3977  05A5  0229               	subwf	(___fttol@exp1),w
  3978  05A6  1C03               	skipc
  3979  05A7  2DA9               	goto	u1511
  3980  05A8  2DAA               	goto	u1510
  3981  05A9                     u1511:
  3982  05A9  2DC1               	goto	l1305
  3983  05AA                     u1510:
  3984                           	line	64
  3985                           	
  3986  05AA                     l1299:	
  3987  05AA  3000               	movlw	0
  3988  05AB  00FB               	movwf	(?___fttol+3)
  3989  05AC  3000               	movlw	0
  3990  05AD  00FA               	movwf	(?___fttol+2)
  3991  05AE  3000               	movlw	0
  3992  05AF  00F9               	movwf	(?___fttol+1)
  3993  05B0  3000               	movlw	0
  3994  05B1  00F8               	movwf	(?___fttol)
  3995                           
  3996  05B2  2DE1               	goto	l357
  3997                           	
  3998  05B3                     l1301:	
  3999  05B3  2DE1               	goto	l357
  4000                           	
  4001  05B4                     l363:	
  4002                           	line	65
  4003  05B4  2DC1               	goto	l1305
  4004                           	
  4005  05B5                     l365:	
  4006                           	line	66
  4007                           	
  4008  05B5                     l1303:	
  4009  05B5  3001               	movlw	01h
  4010  05B6  00A0               	movwf	(??___fttol+0)+0
  4011  05B7                     u1525:
  4012  05B7  1003               	clrc
  4013  05B8  0DA5               	rlf	(___fttol@lval),f
  4014  05B9  0DA6               	rlf	(___fttol@lval+1),f
  4015  05BA  0DA7               	rlf	(___fttol@lval+2),f
  4016  05BB  0DA8               	rlf	(___fttol@lval+3),f
  4017  05BC  0BA0               	decfsz	(??___fttol+0)+0
  4018  05BD  2DB7               	goto	u1525
  4019                           	line	67
  4020  05BE  3001               	movlw	low(01h)
  4021  05BF  02A9               	subwf	(___fttol@exp1),f
  4022  05C0  2DC1               	goto	l1305
  4023                           	line	68
  4024                           	
  4025  05C1                     l364:	
  4026                           	line	65
  4027                           	
  4028  05C1                     l1305:	
  4029  05C1  08A9               	movf	(___fttol@exp1),f
  4030  05C2  1D03               	skipz
  4031  05C3  2DC5               	goto	u1531
  4032  05C4  2DC6               	goto	u1530
  4033  05C5                     u1531:
  4034  05C5  2DB5               	goto	l1303
  4035  05C6                     u1530:
  4036  05C6  2DC8               	goto	l1307
  4037                           	
  4038  05C7                     l366:	
  4039  05C7  2DC8               	goto	l1307
  4040                           	line	69
  4041                           	
  4042  05C8                     l362:	
  4043                           	line	70
  4044                           	
  4045  05C8                     l1307:	
  4046  05C8  0824               	movf	(___fttol@sign1),w
  4047  05C9  1D03               	skipz
  4048  05CA  2DCC               	goto	u1540
  4049  05CB  2DD8               	goto	l1311
  4050  05CC                     u1540:
  4051                           	line	71
  4052                           	
  4053  05CC                     l1309:	
  4054  05CC  09A5               	comf	(___fttol@lval),f
  4055  05CD  09A6               	comf	(___fttol@lval+1),f
  4056  05CE  09A7               	comf	(___fttol@lval+2),f
  4057  05CF  09A8               	comf	(___fttol@lval+3),f
  4058  05D0  0AA5               	incf	(___fttol@lval),f
  4059  05D1  1903               	skipnz
  4060  05D2  0AA6               	incf	(___fttol@lval+1),f
  4061  05D3  1903               	skipnz
  4062  05D4  0AA7               	incf	(___fttol@lval+2),f
  4063  05D5  1903               	skipnz
  4064  05D6  0AA8               	incf	(___fttol@lval+3),f
  4065  05D7  2DD8               	goto	l1311
  4066                           	
  4067  05D8                     l367:	
  4068                           	line	72
  4069                           	
  4070  05D8                     l1311:	
  4071  05D8  0828               	movf	(___fttol@lval+3),w
  4072  05D9  00FB               	movwf	(?___fttol+3)
  4073  05DA  0827               	movf	(___fttol@lval+2),w
  4074  05DB  00FA               	movwf	(?___fttol+2)
  4075  05DC  0826               	movf	(___fttol@lval+1),w
  4076  05DD  00F9               	movwf	(?___fttol+1)
  4077  05DE  0825               	movf	(___fttol@lval),w
  4078  05DF  00F8               	movwf	(?___fttol)
  4079                           
  4080  05E0  2DE1               	goto	l357
  4081                           	
  4082  05E1                     l1313:	
  4083                           	line	73
  4084                           	
  4085  05E1                     l357:	
  4086  05E1  0008               	return
  4087                           	opt stack 0
  4088                           GLOBAL	__end_of___fttol
  4089  05E2                     	__end_of___fttol:
  4090                           	signat	___fttol,4220
  4091                           	global	___lwtoft
  4092                           
  4093 ;; *************** function ___lwtoft *****************
  4094 ;; Defined at:
  4095 ;;		line 29 in file "C:\Program Files (x86)\Microchip\xc8\v1.00\sources\lwtoft.c"
  4096 ;; Parameters:    Size  Location     Type
  4097 ;;  c               2   10[BANK0 ] unsigned int 
  4098 ;; Auto vars:     Size  Location     Type
  4099 ;;		None
  4100 ;; Return value:  Size  Location     Type
  4101 ;;                  3   10[BANK0 ] float 
  4102 ;; Registers used:
  4103 ;;		wreg, status,2, status,0, pclath, cstack
  4104 ;; Tracked objects:
  4105 ;;		On entry : 0/0
  4106 ;;		On exit  : 0/0
  4107 ;;		Unchanged: 0/0
  4108 ;; Data sizes:     COMMON   BANK0   BANK1   BANK3   BANK2
  4109 ;;      Params:         0       3       0       0       0
  4110 ;;      Locals:         0       0       0       0       0
  4111 ;;      Temps:          1       0       0       0       0
  4112 ;;      Totals:         1       3       0       0       0
  4113 ;;Total ram usage:        4 bytes
  4114 ;; Hardware stack levels used:    1
  4115 ;; Hardware stack levels required when called:    1
  4116 ;; This function calls:
  4117 ;;		___ftpack
  4118 ;; This function is called by:
  4119 ;;		_main
  4120 ;; This function uses a non-reentrant model
  4121 ;;
  4122                           psect	text421,local,class=CODE,delta=2,merge=1
  4123                           global __ptext421
  4124  01F8                     __ptext421:
  4125                           psect	text421
  4126                           	file	"C:\Program Files (x86)\Microchip\xc8\v1.00\sources\lwtoft.c"
  4127                           	line	29
  4128                           	global	__size_of___lwtoft
  4129  001B                     	__size_of___lwtoft	equ	__end_of___lwtoft-___lwtoft
  4130                           	
  4131  01F8                     ___lwtoft:	
  4132                           	opt	stack 6
  4133                           ; Regs used in ___lwtoft: [wreg+status,2+status,0+pclath+cstack]
  4134                           	line	30
  4135                           	
  4136  01F8                     l1315:	
  4137  01F8  1283               	bcf	status, 5	;RP0=0, select bank0
  4138  01F9  1303               	bcf	status, 6	;RP1=0, select bank0
  4139  01FA  082A               	movf	(___lwtoft@c),w
  4140  01FB  00F0               	movwf	(?___ftpack)
  4141  01FC  082B               	movf	(___lwtoft@c+1),w
  4142  01FD  00F1               	movwf	(?___ftpack+1)
  4143  01FE  01F2               	clrf	(?___ftpack+2)
  4144  01FF  308E               	movlw	(08Eh)
  4145  0200  00FC               	movwf	(??___lwtoft+0)+0
  4146  0201  087C               	movf	(??___lwtoft+0)+0,w
  4147  0202  00F3               	movwf	0+(?___ftpack)+03h
  4148  0203  01F4               	clrf	0+(?___ftpack)+04h
  4149  0204  120A  118A  22F6   	fcall	___ftpack
              120A  118A         
  4150  0209  0870               	movf	(0+(?___ftpack)),w
  4151  020A  1283               	bcf	status, 5	;RP0=0, select bank0
  4152  020B  1303               	bcf	status, 6	;RP1=0, select bank0
  4153  020C  00AA               	movwf	(?___lwtoft)
  4154  020D  0871               	movf	(1+(?___ftpack)),w
  4155  020E  00AB               	movwf	(?___lwtoft+1)
  4156  020F  0872               	movf	(2+(?___ftpack)),w
  4157  0210  00AC               	movwf	(?___lwtoft+2)
  4158  0211  2A12               	goto	l470
  4159                           	
  4160  0212                     l1317:	
  4161                           	line	31
  4162                           	
  4163  0212                     l470:	
  4164  0212  0008               	return
  4165                           	opt stack 0
  4166                           GLOBAL	__end_of___lwtoft
  4167  0213                     	__end_of___lwtoft:
  4168                           	signat	___lwtoft,4219
  4169                           	global	___ftpack
  4170                           
  4171 ;; *************** function ___ftpack *****************
  4172 ;; Defined at:
  4173 ;;		line 63 in file "C:\Program Files (x86)\Microchip\xc8\v1.00\sources\float.c"
  4174 ;; Parameters:    Size  Location     Type
  4175 ;;  arg             3    0[COMMON] unsigned um
  4176 ;;  exp             1    3[COMMON] unsigned char 
  4177 ;;  sign            1    4[COMMON] unsigned char 
  4178 ;; Auto vars:     Size  Location     Type
  4179 ;;		None
  4180 ;; Return value:  Size  Location     Type
  4181 ;;                  3    0[COMMON] float 
  4182 ;; Registers used:
  4183 ;;		wreg, status,2, status,0
  4184 ;; Tracked objects:
  4185 ;;		On entry : 0/0
  4186 ;;		On exit  : 0/0
  4187 ;;		Unchanged: 0/0
  4188 ;; Data sizes:     COMMON   BANK0   BANK1   BANK3   BANK2
  4189 ;;      Params:         5       0       0       0       0
  4190 ;;      Locals:         0       0       0       0       0
  4191 ;;      Temps:          3       0       0       0       0
  4192 ;;      Totals:         8       0       0       0       0
  4193 ;;Total ram usage:        8 bytes
  4194 ;; Hardware stack levels used:    1
  4195 ;; This function calls:
  4196 ;;		Nothing
  4197 ;; This function is called by:
  4198 ;;		___ftmul
  4199 ;;		___lwtoft
  4200 ;; This function uses a non-reentrant model
  4201 ;;
  4202                           psect	text422,local,class=CODE,delta=2,merge=1
  4203                           global __ptext422
  4204  02F6                     __ptext422:
  4205                           psect	text422
  4206                           	file	"C:\Program Files (x86)\Microchip\xc8\v1.00\sources\float.c"
  4207                           	line	63
  4208                           	global	__size_of___ftpack
  4209  007B                     	__size_of___ftpack	equ	__end_of___ftpack-___ftpack
  4210                           	
  4211  02F6                     ___ftpack:	
  4212                           	opt	stack 6
  4213                           ; Regs used in ___ftpack: [wreg+status,2+status,0]
  4214                           	line	64
  4215                           	
  4216  02F6                     l1173:	
  4217  02F6  0873               	movf	(___ftpack@exp),w
  4218  02F7  1D03               	skipz
  4219  02F8  2AFA               	goto	u1010
  4220  02F9  2B02               	goto	l1177
  4221  02FA                     u1010:
  4222                           	
  4223  02FA                     l1175:	
  4224  02FA  0872               	movf	(___ftpack@arg+2),w
  4225  02FB  0471               	iorwf	(___ftpack@arg+1),w
  4226  02FC  0470               	iorwf	(___ftpack@arg),w
  4227  02FD  1D03               	skipz
  4228  02FE  2B00               	goto	u1021
  4229  02FF  2B01               	goto	u1020
  4230  0300                     u1021:
  4231  0300  2B18               	goto	l1183
  4232  0301                     u1020:
  4233  0301  2B02               	goto	l1177
  4234                           	
  4235  0302                     l581:	
  4236                           	line	65
  4237                           	
  4238  0302                     l1177:	
  4239  0302  3000               	movlw	0x0
  4240  0303  00F0               	movwf	(?___ftpack)
  4241  0304  3000               	movlw	0x0
  4242  0305  00F1               	movwf	(?___ftpack+1)
  4243  0306  3000               	movlw	0x0
  4244  0307  00F2               	movwf	(?___ftpack+2)
  4245  0308  2B70               	goto	l582
  4246                           	
  4247  0309                     l1179:	
  4248  0309  2B70               	goto	l582
  4249                           	
  4250  030A                     l579:	
  4251                           	line	66
  4252  030A  2B18               	goto	l1183
  4253                           	
  4254  030B                     l584:	
  4255                           	line	67
  4256                           	
  4257  030B                     l1181:	
  4258  030B  3001               	movlw	(01h)
  4259  030C  00F5               	movwf	(??___ftpack+0)+0
  4260  030D  0875               	movf	(??___ftpack+0)+0,w
  4261  030E  07F3               	addwf	(___ftpack@exp),f
  4262                           	line	68
  4263  030F  3001               	movlw	01h
  4264  0310                     u1035:
  4265  0310  1003               	clrc
  4266  0311  0CF2               	rrf	(___ftpack@arg+2),f
  4267  0312  0CF1               	rrf	(___ftpack@arg+1),f
  4268  0313  0CF0               	rrf	(___ftpack@arg),f
  4269  0314  3EFF               	addlw	-1
  4270  0315  1D03               	skipz
  4271  0316  2B10               	goto	u1035
  4272                           
  4273  0317  2B18               	goto	l1183
  4274                           	line	69
  4275                           	
  4276  0318                     l583:	
  4277                           	line	66
  4278                           	
  4279  0318                     l1183:	
  4280  0318  30FE               	movlw	low highword(0FE0000h)
  4281  0319  0572               	andwf	(___ftpack@arg+2),w
  4282  031A  1D03               	btfss	status,2
  4283  031B  2B1D               	goto	u1041
  4284  031C  2B1E               	goto	u1040
  4285  031D                     u1041:
  4286  031D  2B0B               	goto	l1181
  4287  031E                     u1040:
  4288  031E  2B36               	goto	l586
  4289                           	
  4290  031F                     l585:	
  4291                           	line	70
  4292  031F  2B36               	goto	l586
  4293                           	
  4294  0320                     l587:	
  4295                           	line	71
  4296                           	
  4297  0320                     l1185:	
  4298  0320  3001               	movlw	(01h)
  4299  0321  00F5               	movwf	(??___ftpack+0)+0
  4300  0322  0875               	movf	(??___ftpack+0)+0,w
  4301  0323  07F3               	addwf	(___ftpack@exp),f
  4302                           	line	72
  4303                           	
  4304  0324                     l1187:	
  4305  0324  3001               	movlw	01h
  4306  0325  07F0               	addwf	(___ftpack@arg),f
  4307  0326  3000               	movlw	0
  4308  0327  1803               	skipnc
  4309  0328  3001               movlw 1
  4310  0329  07F1               	addwf	(___ftpack@arg+1),f
  4311  032A  3000               	movlw	0
  4312  032B  1803               	skipnc
  4313  032C  3001               movlw 1
  4314  032D  07F2               	addwf	(___ftpack@arg+2),f
  4315                           	line	73
  4316                           	
  4317  032E                     l1189:	
  4318  032E  3001               	movlw	01h
  4319  032F                     u1055:
  4320  032F  1003               	clrc
  4321  0330  0CF2               	rrf	(___ftpack@arg+2),f
  4322  0331  0CF1               	rrf	(___ftpack@arg+1),f
  4323  0332  0CF0               	rrf	(___ftpack@arg),f
  4324  0333  3EFF               	addlw	-1
  4325  0334  1D03               	skipz
  4326  0335  2B2F               	goto	u1055
  4327                           
  4328                           	line	74
  4329                           	
  4330  0336                     l586:	
  4331                           	line	70
  4332  0336  30FF               	movlw	low highword(0FF0000h)
  4333  0337  0572               	andwf	(___ftpack@arg+2),w
  4334  0338  1D03               	btfss	status,2
  4335  0339  2B3B               	goto	u1061
  4336  033A  2B3C               	goto	u1060
  4337  033B                     u1061:
  4338  033B  2B20               	goto	l1185
  4339  033C                     u1060:
  4340  033C  2B49               	goto	l1193
  4341                           	
  4342  033D                     l588:	
  4343                           	line	75
  4344  033D  2B49               	goto	l1193
  4345                           	
  4346  033E                     l590:	
  4347                           	line	76
  4348                           	
  4349  033E                     l1191:	
  4350  033E  3001               	movlw	low(01h)
  4351  033F  02F3               	subwf	(___ftpack@exp),f
  4352                           	line	77
  4353  0340  3001               	movlw	01h
  4354  0341                     u1075:
  4355  0341  1003               	clrc
  4356  0342  0DF0               	rlf	(___ftpack@arg),f
  4357  0343  0DF1               	rlf	(___ftpack@arg+1),f
  4358  0344  0DF2               	rlf	(___ftpack@arg+2),f
  4359  0345  3EFF               	addlw	-1
  4360  0346  1D03               	skipz
  4361  0347  2B41               	goto	u1075
  4362  0348  2B49               	goto	l1193
  4363                           	line	78
  4364                           	
  4365  0349                     l589:	
  4366                           	line	75
  4367                           	
  4368  0349                     l1193:	
  4369  0349  1FF1               	btfss	(___ftpack@arg+1),(15)&7
  4370  034A  2B4C               	goto	u1081
  4371  034B  2B4D               	goto	u1080
  4372  034C                     u1081:
  4373  034C  2B3E               	goto	l1191
  4374  034D                     u1080:
  4375                           	
  4376  034D                     l591:	
  4377                           	line	79
  4378  034D  1873               	btfsc	(___ftpack@exp),(0)&7
  4379  034E  2B50               	goto	u1091
  4380  034F  2B51               	goto	u1090
  4381  0350                     u1091:
  4382  0350  2B57               	goto	l592
  4383  0351                     u1090:
  4384                           	line	80
  4385                           	
  4386  0351                     l1195:	
  4387  0351  30FF               	movlw	0FFh
  4388  0352  05F0               	andwf	(___ftpack@arg),f
  4389  0353  307F               	movlw	07Fh
  4390  0354  05F1               	andwf	(___ftpack@arg+1),f
  4391  0355  30FF               	movlw	0FFh
  4392  0356  05F2               	andwf	(___ftpack@arg+2),f
  4393                           	
  4394  0357                     l592:	
  4395                           	line	81
  4396  0357  1003               	clrc
  4397  0358  0CF3               	rrf	(___ftpack@exp),f
  4398                           
  4399                           	line	82
  4400                           	
  4401  0359                     l1197:	
  4402  0359  0873               	movf	(___ftpack@exp),w
  4403  035A  00F5               	movwf	((??___ftpack+0)+0)
  4404  035B  01F6               	clrf	((??___ftpack+0)+0+1)
  4405  035C  01F7               	clrf	((??___ftpack+0)+0+2)
  4406  035D  3010               	movlw	010h
  4407  035E                     u1105:
  4408  035E  1003               	clrc
  4409  035F  0DF5               	rlf	(??___ftpack+0)+0,f
  4410  0360  0DF6               	rlf	(??___ftpack+0)+1,f
  4411  0361  0DF7               	rlf	(??___ftpack+0)+2,f
  4412  0362                     u1100:
  4413  0362  3EFF               	addlw	-1
  4414  0363  1D03               	skipz
  4415  0364  2B5E               	goto	u1105
  4416  0365  0875               	movf	0+(??___ftpack+0)+0,w
  4417  0366  04F0               	iorwf	(___ftpack@arg),f
  4418  0367  0876               	movf	1+(??___ftpack+0)+0,w
  4419  0368  04F1               	iorwf	(___ftpack@arg+1),f
  4420  0369  0877               	movf	2+(??___ftpack+0)+0,w
  4421  036A  04F2               	iorwf	(___ftpack@arg+2),f
  4422                           	line	83
  4423                           	
  4424  036B                     l1199:	
  4425  036B  0874               	movf	(___ftpack@sign),w
  4426  036C  1D03               	skipz
  4427  036D  2B6F               	goto	u1110
  4428  036E  2B70               	goto	l593
  4429  036F                     u1110:
  4430                           	line	84
  4431                           	
  4432  036F                     l1201:	
  4433  036F  17F2               	bsf	(___ftpack@arg)+(23/8),(23)&7
  4434                           	
  4435  0370                     l593:	
  4436                           	line	85
  4437                           	line	86
  4438                           	
  4439  0370                     l582:	
  4440  0370  0008               	return
  4441                           	opt stack 0
  4442                           GLOBAL	__end_of___ftpack
  4443  0371                     	__end_of___ftpack:
  4444                           	signat	___ftpack,12411
  4445                           psect	text423,local,class=CODE,delta=2,merge=1
  4446                           global __ptext423
  4447  0000                     __ptext423:
  4448                           	global	btemp
  4449  007E                     	btemp set 07Eh
  4450                           
  4451                           	DABS	1,126,2	;btemp
  4452                           	global	wtemp0
  4453  007E                     	wtemp0 set btemp


Data Sizes:
    Strings     10
    Constant    0
    Data        0
    BSS         4
    Persistent  0
    Stack       0

Auto Spaces:
    Space          Size  Autos    Used
    COMMON           14     14      14
    BANK0            80     42      46
    BANK1            80      0       0
    BANK3            96      0       0
    BANK2            96      0       0

Pointer List with Targets:

    ?___ftpack	float  size(1) Largest target is 0

    ?___fttol	long  size(1) Largest target is 0

    ?___lwmod	unsigned int  size(1) Largest target is 0

    ?___ftmul	float  size(1) Largest target is 0

    ?___lwtoft	float  size(1) Largest target is 0

    ?___lwdiv	unsigned int  size(1) Largest target is 0

    ?_ui_adc_read	unsigned int  size(1) Largest target is 0

    LCD_putstr@csz_string	PTR unsigned char  size(1) Largest target is 10
		 -> STR_1(CODE[10]), 


Critical Paths under _main in COMMON

    _main->___lwtoft
    _LCD_putstr->_LCD_senddata
    _LCD_putchar->_LCD_senddata
    _LCD_senddata->_LCD_4bitsend
    _LCD_goto->_LCD_command
    _initialize->_LCD_initialize
    _LCD_initialize->_LCD_command
    _LCD_clear->_LCD_command
    _LCD_command->_LCD_4bitsend
    ___ftmul->___lwtoft
    ___fttol->___ftpack
    ___lwtoft->___fttol

Critical Paths under _main in BANK0

    _main->___ftmul
    ___ftmul->___lwtoft
    ___lwtoft->___fttol

Critical Paths under _main in BANK1

    None.

Critical Paths under _main in BANK3

    None.

Critical Paths under _main in BANK2

    None.

Call Graph Tables:

 ---------------------------------------------------------------------------------
 (Depth) Function   	        Calls       Base Space   Used Autos Params    Refs
 ---------------------------------------------------------------------------------
 (0) _main                                                14    14      0    3076
                                             13 COMMON     1     1      0
                                             29 BANK0     13    13      0
                         _initialize
                         _LCD_putstr
                             _adc_on
                        _ui_adc_read
                            ___lwdiv
                           ___lwtoft
                            ___ftmul
                            ___fttol
                       _LED_Blinking
                            ___lwmod
                           _LCD_goto
                        _LCD_putchar
                            _adc_off
 ---------------------------------------------------------------------------------
 (1) _adc_on                                               0     0      0       0
 ---------------------------------------------------------------------------------
 (1) _adc_off                                              0     0      0       0
 ---------------------------------------------------------------------------------
 (1) _ui_adc_read                                          6     4      2      47
                                              0 COMMON     6     4      2
 ---------------------------------------------------------------------------------
 (1) _LCD_putstr                                           2     2      0     243
                                              3 COMMON     2     2      0
                       _LCD_senddata
 ---------------------------------------------------------------------------------
 (1) _LCD_putchar                                          1     1      0     220
                                              3 COMMON     1     1      0
                       _LCD_senddata
 ---------------------------------------------------------------------------------
 (2) _LCD_senddata                                         1     1      0     198
                                              2 COMMON     1     1      0
                       _LCD_4bitsend
 ---------------------------------------------------------------------------------
 (1) _LCD_goto                                             2     1      1     264
                                              3 COMMON     2     1      1
                        _LCD_command
 ---------------------------------------------------------------------------------
 (1) _initialize                                           2     2      0     396
                                              5 COMMON     2     2      0
                     _adc_initialize
                     _LCD_initialize
                          _LCD_clear
 ---------------------------------------------------------------------------------
 (2) _adc_initialize                                       0     0      0       0
 ---------------------------------------------------------------------------------
 (2) _LCD_initialize                                       2     2      0     198
                                              3 COMMON     2     2      0
                        _LCD_command
 ---------------------------------------------------------------------------------
 (2) _LCD_clear                                            0     0      0     198
                        _LCD_command
 ---------------------------------------------------------------------------------
 (2) _LCD_command                                          1     1      0     198
                                              2 COMMON     1     1      0
                       _LCD_4bitsend
 ---------------------------------------------------------------------------------
 (3) _LCD_4bitsend                                         2     2      0     176
                                              0 COMMON     2     2      0
 ---------------------------------------------------------------------------------
 (1) _LED_Blinking                                         4     2      2     198
                                              0 COMMON     4     2      2
 ---------------------------------------------------------------------------------
 (1) ___lwdiv                                              8     4      4     162
                                              0 COMMON     8     4      4
 ---------------------------------------------------------------------------------
 (1) ___lwmod                                              6     2      4     159
                                              0 COMMON     6     2      4
 ---------------------------------------------------------------------------------
 (1) ___ftmul                                             16    10      6     535
                                             13 BANK0     16    10      6
                           ___ftpack
                           ___lwtoft (ARG)
                            ___fttol (ARG)
 ---------------------------------------------------------------------------------
 (1) ___fttol                                             14    10      4     252
                                              8 COMMON     4     0      4
                                              0 BANK0     10    10      0
                           ___ftpack (ARG)
 ---------------------------------------------------------------------------------
 (1) ___lwtoft                                             4     1      3     231
                                             12 COMMON     1     1      0
                                             10 BANK0      3     0      3
                           ___ftpack
                            ___fttol (ARG)
 ---------------------------------------------------------------------------------
 (2) ___ftpack                                             8     3      5     209
                                              0 COMMON     8     3      5
 ---------------------------------------------------------------------------------
 Estimated maximum stack depth 3
 ---------------------------------------------------------------------------------

 Call Graph Graphs:

 _main (ROOT)
   _initialize
     _adc_initialize
     _LCD_initialize
       _LCD_command
         _LCD_4bitsend
     _LCD_clear
       _LCD_command
         _LCD_4bitsend
   _LCD_putstr
     _LCD_senddata
       _LCD_4bitsend
   _adc_on
   _ui_adc_read
   ___lwdiv
   ___lwtoft
     ___ftpack
     ___fttol (ARG)
       ___ftpack (ARG)
   ___ftmul
     ___ftpack
     ___lwtoft (ARG)
       ___ftpack
       ___fttol (ARG)
         ___ftpack (ARG)
     ___fttol (ARG)
       ___ftpack (ARG)
   ___fttol
     ___ftpack (ARG)
   _LED_Blinking
   ___lwmod
   _LCD_goto
     _LCD_command
       _LCD_4bitsend
   _LCD_putchar
     _LCD_senddata
       _LCD_4bitsend
   _adc_off

 Address spaces:
Name               Size   Autos  Total    Cost      Usage
BITCOMMON            E      0       0       0        0.0%
EEDATA             100      0       0       0        0.0%
NULL                 0      0       0       0        0.0%
CODE                 0      0       0       0        0.0%
COMMON               E      E       E       1      100.0%
BITSFR0              0      0       0       1        0.0%
SFR0                 0      0       0       1        0.0%
BITSFR1              0      0       0       2        0.0%
SFR1                 0      0       0       2        0.0%
STACK                0      0       4       2        0.0%
ABS                  0      0      3C       3        0.0%
BITBANK0            50      0       0       4        0.0%
BITSFR3              0      0       0       4        0.0%
SFR3                 0      0       0       4        0.0%
BANK0               50     2A      2E       5       57.5%
BITSFR2              0      0       0       5        0.0%
SFR2                 0      0       0       5        0.0%
BITBANK1            50      0       0       6        0.0%
BANK1               50      0       0       7        0.0%
BITBANK3            60      0       0       8        0.0%
BANK3               60      0       0       9        0.0%
BITBANK2            60      0       0      10        0.0%
BANK2               60      0       0      11        0.0%
DATA                 0      0      40      12        0.0%


HI-TECH Software PICC Macro Assembler V1.00 build 12136 
Symbol Table                                                                                   Fri Aug 10 16:05:10 2012

         ui_adc_read@ohm 0074                        pc 0002                       l41 0185  
                     l35 01C8                       l44 0244                       l45 0244  
                     l46 0249                       l38 0189                       l47 0263  
                     l72 03F7                       l80 0233                       l81 0233  
                     l66 01AB                       l90 01D7                       l91 01DF  
                     l75 01B6                       l92 01DF                       l84 0198  
                     l69 0497                       l78 0226                       l87 0190  
                     l79 0215                       _GO 00FA                       fsr 0004  
                    l140 07F7                      l141 07F8                      l133 06EC  
                    l150 04C5                      l142 07FD                      l134 06FD  
                    l151 053A                      l135 071C                      l152 04DD  
                    l153 0539                      l145 01F7                      l154 04F6  
                    l138 0789                      l155 0538                      l139 07CE  
                    l260 02F5                      l156 0530                      l148 04AE  
                    l253 02EE                      l149 053B                      l157 0537  
                    l350 0682                      l270 02A7                      l254 02C0  
                    l158 053B                      l351 0687                      l263 02A0  
                    l255 02B4                      l360 0591                      l352 069C  
                    l264 027A                      l256 02C5                      l361 05A3  
                    l353 06B3                      l345 05FD                      l265 026E  
                    l257 02C6                      l362 05C8                      l346 06CF  
                    l266 027F                      l258 02DF                      l363 05B4  
                    l347 0616                      l267 0280                      l259 02ED  
                    l364 05C1                      l356 0559                      l348 0656  
                    l268 0291                      l365 05B5                      l357 05E1  
                    l349 066B                      l269 029F                      l470 0212  
                    l366 05C7                      l358 05A4                      l367 05D8  
                    l359 0590                      l581 0302                      l590 033E  
                    l582 0370                      l591 034D                      l583 0318  
                    l592 0357                      l584 030B                      l593 0370  
                    l585 031F                      l586 0336                      l587 0320  
                    l579 030A                      l588 033D                      l589 0349  
                    _RC0 0038                      _RB2 0032                      _RC1 0039  
                    _RB3 0033                      _RC2 003A                      _RB4 0034  
                    _RC3 003B                      _RB5 0035                      _RB6 0036  
                    _RB7 0037                      u900 02C4                      u901 02C3  
                    u920 02D7                      u921 02D6                      u915 02C7  
                    u940 02EC                      u941 02EB                      u925 02D3  
                    u950 026A                      u951 0269                      u935 02E0  
                    u880 02B0                      u881 02AF                      u970 027E  
                    u971 027D                      u980 028A                      u981 0289  
                    u965 026F                      u895 02B5                      u985 0286  
                    u995 0292                      fsr0 0004                      indf 0000  
            ?_LCD_putstr 0070           ??_LCD_4bitsend 0070                     l1201 036F  
                   l1121 0186                     l1131 02B4                     l1211 023B  
                   l1203 0234                     l1123 0182                     l1301 05B3  
                   l1141 02DD                     l1133 02BB                     l1125 02A8  
                   l1221 0263                     l1213 0240                     l1205 0236  
                   l1311 05D8                     l1303 05B5                     l1151 0264  
                   l1143 02DF                     l1135 02C0                     l1127 02AA  
                   l1231 044C                     l1223 03F9                     l1119 01B7  
                   l1215 0249                     l1207 0239                     l1313 05E1  
                   l1305 05C1                     l1161 0280                     l1153 026A  
                   l1145 02E6                     l1137 02C6                     l1129 02B0  
                   l1241 0494                     l1233 045E                     l1225 0441  
                   l1321 01A5                     l1401 039B                     l1217 0253  
                   l1209 023A                     l1315 01F8                     l1307 05C8  
                   l1331 05FC                     l1171 02A7                     l1163 028A  
                   l1155 026E                     l1139 02D7                     l1147 02EE  
                   l1251 04B7                     l1243 0498                     l1235 0470  
                   l1227 0442                     l1411 03B2                     l1403 039C  
                   l1323 01AD                     l1219 025C                     l1181 030B  
                   l1173 02F6                     l1317 0212                     l1309 05CC  
                   l1341 0643                     l1333 05FD                     l1165 0291  
                   l1157 0275                     l1149 02F5                     l1261 04DD  
                   l1253 04C0                     l1245 04A1                     l1237 0482  
                   l1229 0449                     l1421 03C7                     l1413 03B3  
                   l1405 039D                     l1325 01B0                     l1501 0788  
                   l1191 033E                     l1183 0318                     l1175 02FA  
                   l1271 053C                     l1351 0656                     l1343 0644  
                   l1335 060E                     l1327 05E2                     l1167 0298  
                   l1159 027A                     l1263 04E6                     l1255 04C5  
                   l1247 04AA                     l1239 048C                     l1319 01A2  
                   l1431 03D5                     l1423 03CA                     l1415 03B4  
                   l1407 03A5                     l1511 07CE                     l1503 0789  
                   l1193 0349                     l1185 0320                     l1177 0302  
                   l1281 056C                     l1273 054F                     l1361 0682  
                   l1353 065A                     l1345 0645                     l1337 0615  
                   l1329 05F5                     l1169 02A0                     l1265 04EF  
                   l1257 04CE                     l1249 04AE                     l1433 03DF  
                   l1425 03CB                     l1417 03B5                     l1409 03AF  
                   l1441 0214                     l1513 07F8                     l1505 07B5  
                   l1195 0351                     l1187 0324                     l1179 0309  
                   l1291 0586                     l1283 0572                     l1275 0558  
                   l1371 06AC                     l1363 0687                     l1355 066B  
                   l1347 064B                     l1339 0616                     l1267 04F6  
                   l1259 04D7                     l1451 018A                     l1435 03E5  
                   l1427 03CC                     l1419 03BD                     l1443 0215  
                   l1507 07BE                     l1197 0359                     l1189 032E  
                   l1293 058F                     l1285 0579                     l1277 0559  
                   l1373 06B3                     l1365 068B                     l1357 0673  
                   l1349 0651                     l1269 04FF                     l1437 03EB  
                   l1429 03CD                     l1381 0386                     l1461 01E5  
                   l1453 01CA                     l1445 0221                     l1509 07C4  
                   l1199 036B                     l1295 0591                     l1287 057B  
                   l1279 056B                     l1375 06CF                     l1367 069C  
                   l1359 067B                     l1439 03F1                     l1391 038D  
                   l1383 0389                     l1455 01CF                     l1447 0226  
                   l1471 06DB                     l1463 06D0                     l1289 057F  
                   l1297 05A4                     l1369 06A4                     l1393 038E  
                   l1385 038A                     l1377 0371                     l1457 01D7  
                   l1449 0192                     l1481 06F2                     l1473 06E1  
                   l1465 06D3                     l1299 05AA                     l1395 0396  
                   l1387 038B                     l1379 037A                     l1459 01E0  
                   l1483 06FC                     l1491 071C                     l1475 06E6  
                   l1467 06D5                     l1397 0399                     l1389 038C  
                   l1493 0771                     l1485 06FD                     l1477 06EC  
                   l1469 06D6                     l1399 039A                     l1495 077B  
                   l1487 070C                     l1479 06F0                     l1497 077C  
                   l1489 0712                     l1499 077E                     _ADFM 04FF  
                   _ADON 00F8                     _CHS0 00FB                     _CHS1 00FC  
                   _CHS2 00FD                     STR_1 0009             ?_LCD_command 0070  
                   u1000 029E                     u1001 029D                     u1010 02FA  
                   u1100 0362                     u1020 0301                     u1021 0300  
                   u1110 036F                     u1040 031E                     u1200 042C  
                   u1120 0248                     u1105 035E                     u1041 031D  
                   u1201 0428                     u1121 0247                     u1035 0310  
                   u1060 033C                     u1140 0408                     u1061 033B  
                   u1141 0404                     u1230 043E                     u1214 042F  
                   u1055 032F                     u1231 043A                     u1135 03FC  
                   u1080 034D                     u1400 04CE                     u1320 047F  
                   u1304 0470                     u1081 034C                     u1401 04CD  
                   u1321 047B                     u1225 0432                     u1090 0351  
                   u1410 04D7                     u1170 041A                     u1154 040B  
                   u1091 0350                     u1075 0341                     u1411 04D6  
                   u1315 0473                     u1171 0416                     u1500 05A2  
                   u1420 04E6                     u1340 0489                     u1260 045B  
                   u1244 0441                     u1501 05A1                     u1421 04E5  
                   u1341 0485                     u1261 0457                     u1165 040E  
                   u1510 05AA                     u1430 04EF                     u1334 0482  
                   u1511 05A9                     u1431 04EE                     u1255 044F  
                   u1440 04FF                     u1360 04A1                     u1184 041D  
                   u1601 0663                     u1441 04FE                     u1361 04A0  
                   u1530 05C6                     u1450 054F                     u1602 066A  
                   u1370 04AA                     u1354 048C                     u1290 046D  
                   u1274 045E                     u1531 05C5                     u1451 054E  
                   u1371 04A9                     u1291 0469                     u1195 0420  
                   u1540 05CC                     u1460 0564                     u1380 04B7  
                   u1700 01CF                     u1525 05B7                     u1381 04B6  
                   u1285 0461                     u1701 01CE                     u1470 057F  
                   u1630 0681                     u1550 05F5                     u1390 04C0  
                   u1710 06FB                     u1471 057E                     u1631 0680  
                   u1615 066C                     u1551 05F4                     u1391 04BF  
                   u1711 06FA                     u1480 0586                     u1640 068B  
                   u1560 060E                     u1720 071B                     u1481 0585  
                   u1465 0560                     u1641 068A                     u1625 0674  
                   u1561 060D                     u1721 071A                     u1570 0626  
                   u1730 0787                     u1651 0694                     u1731 0786  
                   u1652 069B                     u1580 0638                     u1740 07CD  
                   u1741 07CC                     u1590 065A                     u1495 0592  
                   u1591 0659                     u1575 0622                     u1807 0391  
                   u1680 06B2                     u1681 06B1                     u1665 069D  
                   u1585 0634                     u1817 03A0                     u1690 0232  
                   u1675 06A5                     u1907 0513                     u1827 03AA  
                   u1691 0231                     u1917 051F                     u1837 03B8  
                   u1757 06E8                     u1927 052B                     u1847 03C2  
                   u1767 023D                     u1857 03D0                     u1777 01E9  
                   u1867 03DA                     u1787 0375                     u1877 0444  
                   u1797 0381                     u1887 048F                     u1897 0507  
          ?_LED_Blinking 0070                     _main 06D0             ___ftpack@arg 0070  
           ___ftpack@exp 0073                     btemp 007E                     start 0000  
           ?_LCD_putchar 0070       __size_of_LCD_clear 0007              main@voltage 0044  
         LCD_goto@column 0073             ___ftmul@cntr 003B             ___ftmul@sign 003C  
           ___fttol@exp1 0029             ___fttol@lval 0025  __size_of_LCD_initialize 0087  
       __end_of_LCD_goto 01E0                    _ADCS0 00FE                    _ADCS1 00FF  
                  _ADCS2 04FE                    ?_main 0070          __end_of___ftmul 06D0  
        __end_of___fttol 05E2          __end_of_adc_off 0186                    _PCFG0 04F8  
                  _PCFG1 04F9                    _PCFG2 04FA                    _PCFG3 04FB  
        __end_of___lwdiv 02F6          __end_of___lwmod 02A8                    _TRISB 0086  
                  _TRISC 0087            ___ftpack@sign 0074                    main@i 0042  
                  main@j 0046            ?_LCD_senddata 0070           ??_LED_Blinking 0072  
                  pclath 000A                    status 0003                    wtemp0 007E  
            LCD_goto@row 0074      __size_of_LCD_putstr 0021             __end_of_main 0800  
                 ??_main 007D            ___fttol@sign1 0024        __end_of_LCD_clear 0191  
           ?_ui_adc_read 0070           ??_LCD_senddata 0072                   _ADRESH 001E  
                 _ADRESL 009E         __end_of___ftpack 0371         __end_of___lwtoft 0213  
                 _TRISA0 0428                   _adc_on 0186            main@remainder 0041  
__size_of_adc_initialize 0012                ??___ftmul 0033                ??___fttol 0020  
              ??_adc_off 0070                ??___lwdiv 0074                ??___lwmod 0074  
   __end_of_LCD_4bitsend 0498        LCD_putchar@c_data 0073    ___ftmul@f3_as_product 0038  
   __size_of_LCD_command 000B                ?_LCD_goto 0073               ___ftmul@f1 002D  
             ___ftmul@f2 0030               ___fttol@f1 0078           __pcstackCOMMON 0070  
   __size_of_LCD_putchar 0008           _LCD_initialize 0371     __end_of_LED_Blinking 053C  
             ___lwtoft@c 002A             ??_LCD_putstr 0073               __pbssBANK0 004A  
             ??_LCD_goto 0074               __pmaintext 06D0   __end_of_LCD_initialize 03F8  
        LCD_senddata@var 0072                  ?_adc_on 0070            LED_Blinking@k 0070  
     __end_of_LCD_putstr 0234     __end_of_LCD_senddata 01B7                ?___ftpack 0070  
              ?___lwtoft 002A     __size_of_ui_adc_read 0030    __size_of_LCD_4bitsend 00A0  
        ?_LCD_initialize 0070           _adc_initialize 01B7          __size_of_adc_on 0004  
                ___ftmul 05E2                  ___fttol 053C                  _adc_off 0182  
                ___lwdiv 02A8                  ___lwmod 0264               ??___ftpack 0075  
             _initialize 01E0               ??___lwtoft 007C         LCD_4bitsend@data 0071  
              _LCD_clear 018A     end_of_initialization 019D             _LCD_4bitsend 03F8  
 __end_of_adc_initialize 01C9    __size_of_LED_Blinking 00A4               ?_LCD_clear 0070  
           _LED_Blinking 0498               main@value_ 003D    __size_of_LCD_senddata 000B  
        ?_adc_initialize 0070        __size_of_LCD_goto 0017              ___ftmul@exp 0037  
         __end_of_adc_on 018A              ?_initialize 0070      start_initialization 0199  
          ??_LCD_command 0072             _LCD_senddata 01AC            ??_LCD_putchar 0073  
               ??_adc_on 0070        __size_of___ftpack 007B        __size_of___lwtoft 001B  
          __pcstackBANK0 0020              ??_LCD_clear 0073      __size_of_initialize 0018  
       ??_LCD_initialize 0073      __end_of_LCD_command 01AC         ___lwdiv@dividend 0072  
              __ptext410 01E0                __ptext411 01B7                __ptext403 0186  
              __ptext420 053C                __ptext412 0371                __ptext404 0182  
              __ptext421 01F8                __ptext413 018A                __ptext405 0234  
              __ptext422 02F6                __ptext414 01A1                __ptext406 0213  
              __ptext423 0000                __ptext415 03F8                __ptext407 0191  
              __ptext416 0498                __ptext408 01AC                __ptext417 02A8  
              __ptext409 01C9                __ptext418 0264                __ptext419 05E2  
               ?___ftmul 002D                 ?___fttol 0078                 ?_adc_off 0070  
               ?___lwdiv 0070                 ?___lwmod 0070      __end_of_LCD_putchar 0199  
              __pstrings 0003            ??_ui_adc_read 0072         ___lwdiv@quotient 0075  
               _LCD_goto 01C9                main@F1161 004A              __stringbase 0008  
              main@total 0048              _LCD_command 01A1         ??_adc_initialize 0070  
    __end_of_ui_adc_read 0264              _LCD_putchar 0191         __size_of___ftmul 00EE  
       __size_of___fttol 00A6         __size_of_adc_off 0004         __size_of___lwdiv 004E  
       __size_of___lwmod 0044             ??_initialize 0075                 ___ftpack 02F6  
               ___lwtoft 01F8          ___lwdiv@divisor 0070          ___lwdiv@counter 0077  
          __size_of_main 0130       __end_of_initialize 01F8     LCD_putstr@csz_string 0074  
             _LCD_putstr 0213              _ui_adc_read 0234         ___lwmod@dividend 0072  
              stringcode 0003          ___lwmod@divisor 0070          ___lwmod@counter 0075  
               stringdir 0003                 stringtab 0003            ?_LCD_4bitsend 0070  
         LCD_command@var 0072  
